
FlappyBird.elf:     file format elf32-avr

Sections:
Idx Name          Size      VMA       LMA       File off  Algn
  0 .text         00002c74  00000000  00000000  00000094  2**1
                  CONTENTS, ALLOC, LOAD, READONLY, CODE
  1 .data         00000014  00800060  00002c74  00002d08  2**0
                  CONTENTS, ALLOC, LOAD, DATA
  2 .bss          0000020b  00800074  00800074  00002d1c  2**0
                  ALLOC
  3 .comment      0000005c  00000000  00000000  00002d1c  2**0
                  CONTENTS, READONLY
  4 .note.gnu.avr.deviceinfo 0000003c  00000000  00000000  00002d78  2**2
                  CONTENTS, READONLY
  5 .debug_aranges 00000238  00000000  00000000  00002db8  2**3
                  CONTENTS, READONLY, DEBUGGING
  6 .debug_info   000058a3  00000000  00000000  00002ff0  2**0
                  CONTENTS, READONLY, DEBUGGING
  7 .debug_abbrev 00000cdc  00000000  00000000  00008893  2**0
                  CONTENTS, READONLY, DEBUGGING
  8 .debug_line   00001d02  00000000  00000000  0000956f  2**0
                  CONTENTS, READONLY, DEBUGGING
  9 .debug_frame  00000928  00000000  00000000  0000b274  2**2
                  CONTENTS, READONLY, DEBUGGING
 10 .debug_str    00000de0  00000000  00000000  0000bb9c  2**0
                  CONTENTS, READONLY, DEBUGGING
 11 .debug_loc    00003edd  00000000  00000000  0000c97c  2**0
                  CONTENTS, READONLY, DEBUGGING
 12 .debug_ranges 000001d8  00000000  00000000  00010859  2**0
                  CONTENTS, READONLY, DEBUGGING

Disassembly of section .text:

00000000 <__vectors>:
       0:	0c 94 2c 06 	jmp	0xc58	; 0xc58 <__ctors_end>
       4:	0c 94 54 06 	jmp	0xca8	; 0xca8 <__bad_interrupt>
       8:	0c 94 54 06 	jmp	0xca8	; 0xca8 <__bad_interrupt>
       c:	0c 94 54 06 	jmp	0xca8	; 0xca8 <__bad_interrupt>
      10:	0c 94 54 06 	jmp	0xca8	; 0xca8 <__bad_interrupt>
      14:	0c 94 54 06 	jmp	0xca8	; 0xca8 <__bad_interrupt>
      18:	0c 94 54 06 	jmp	0xca8	; 0xca8 <__bad_interrupt>
      1c:	0c 94 54 06 	jmp	0xca8	; 0xca8 <__bad_interrupt>
      20:	0c 94 54 06 	jmp	0xca8	; 0xca8 <__bad_interrupt>
      24:	0c 94 54 06 	jmp	0xca8	; 0xca8 <__bad_interrupt>
      28:	0c 94 54 06 	jmp	0xca8	; 0xca8 <__bad_interrupt>
      2c:	0c 94 54 06 	jmp	0xca8	; 0xca8 <__bad_interrupt>
      30:	0c 94 54 06 	jmp	0xca8	; 0xca8 <__bad_interrupt>
      34:	0c 94 54 06 	jmp	0xca8	; 0xca8 <__bad_interrupt>
      38:	0c 94 54 06 	jmp	0xca8	; 0xca8 <__bad_interrupt>
      3c:	0c 94 54 06 	jmp	0xca8	; 0xca8 <__bad_interrupt>
      40:	0c 94 54 06 	jmp	0xca8	; 0xca8 <__bad_interrupt>
      44:	0c 94 54 06 	jmp	0xca8	; 0xca8 <__bad_interrupt>
      48:	0c 94 54 06 	jmp	0xca8	; 0xca8 <__bad_interrupt>
      4c:	0c 94 54 06 	jmp	0xca8	; 0xca8 <__bad_interrupt>
      50:	0c 94 54 06 	jmp	0xca8	; 0xca8 <__bad_interrupt>
      54:	05 a8       	ldd	r0, Z+53	; 0x35
      56:	4c cd       	rjmp	.-1384   	; 0xfffffaf0 <__eeprom_end+0xff7efaf0>
      58:	b2 d4       	rcall	.+2404   	; 0x9be <__stack+0x55f>
      5a:	4e b9       	out	0x0e, r20	; 14
      5c:	38 36       	cpi	r19, 0x68	; 104
      5e:	a9 02       	muls	r26, r25
      60:	0c 50       	subi	r16, 0x0C	; 12
      62:	b9 91       	ld	r27, Y+
      64:	86 88       	ldd	r8, Z+22	; 0x16
      66:	08 3c       	cpi	r16, 0xC8	; 200
      68:	a6 aa       	std	Z+54, r10	; 0x36
      6a:	aa 2a       	or	r10, r26
      6c:	be 00       	.word	0x00be	; ????
      6e:	00 00       	nop
      70:	80 3f       	cpi	r24, 0xF0	; 240

00000072 <BigFont>:
      72:	10 10 20 5f 00 00 00 00 00 00 00 00 00 00 00 00     .. _............
	...
      9a:	07 00 0f 80 0f 80 0f 80 0f 80 0f 80 07 00 07 00     ................
      aa:	00 00 00 00 07 00 07 00 07 00 00 00 00 00 0e 38     ...............8
      ba:	0e 38 0e 38 0e 38 06 30 00 00 00 00 00 00 00 00     .8.8.8.0........
	...
      d6:	00 00 0c 30 0c 30 0c 30 7f fe 7f fe 0c 30 0c 30     ...0.0.0.....0.0
      e6:	0c 30 0c 30 7f fe 7f fe 0c 30 0c 30 0c 30 00 00     .0.0.....0.0.0..
      f6:	00 00 02 40 02 40 0f f8 1f f8 1a 40 1a 40 1f f0     ...@.@.....@.@..
     106:	0f f8 02 58 02 58 1f f8 1f f0 02 40 02 40 00 00     ...X.X.....@.@..
     116:	00 00 00 00 00 00 0e 10 0e 30 0e 70 00 e0 01 c0     .........0.p....
     126:	03 80 07 00 0e 70 0c 70 08 70 00 00 00 00 00 00     .....p.p.p......
     136:	00 00 00 00 0f 00 19 80 19 80 19 80 0f 00 0f 08     ................
     146:	0f 98 19 f8 18 f0 18 e0 19 f0 0f 98 00 00 00 00     ................
     156:	00 00 00 00 07 00 07 00 07 00 0e 00 00 00 00 00     ................
	...
     17a:	00 f0 01 c0 03 80 07 00 0e 00 0e 00 0e 00 0e 00     ................
     18a:	07 00 03 80 01 c0 00 f0 00 00 00 00 00 00 00 00     ................
     19a:	0f 00 03 80 01 c0 00 e0 00 70 00 70 00 70 00 70     .........p.p.p.p
     1aa:	00 e0 01 c0 03 80 0f 00 00 00 00 00 00 00 00 00     ................
     1ba:	01 80 11 88 09 90 07 e0 07 e0 3f fc 3f fc 07 e0     ..........?.?...
     1ca:	07 e0 09 90 11 88 01 80 00 00 00 00 00 00 00 00     ................
     1da:	00 00 00 00 01 80 01 80 01 80 0f f0 0f f0 01 80     ................
     1ea:	01 80 01 80 00 00 00 00 00 00 00 00 00 00 00 00     ................
	...
     20a:	00 00 07 00 07 00 07 00 0e 00 00 00 00 00 00 00     ................
	...
     222:	00 00 1f f8 1f f8 00 00 00 00 00 00 00 00 00 00     ................
	...
     24a:	00 00 07 00 07 00 07 00 00 00 00 00 00 00 00 00     ................
     25a:	00 02 00 06 00 0e 00 1c 00 38 00 70 00 e0 01 c0     .........8.p....
     26a:	03 80 07 00 0e 00 1c 00 00 00 00 00 00 00 00 00     ................
     27a:	0f f0 1c 38 1c 78 1c f8 1c f8 1d b8 1d b8 1f 38     ...8.x.........8
     28a:	1f 38 1e 38 1c 38 0f f0 00 00 00 00 00 00 00 00     .8.8.8..........
     29a:	01 80 01 80 03 80 1f 80 1f 80 03 80 03 80 03 80     ................
     2aa:	03 80 03 80 03 80 1f f0 00 00 00 00 00 00 00 00     ................
     2ba:	0f e0 1c 70 1c 38 00 38 00 70 00 e0 01 c0 03 80     ...p.8.8.p......
     2ca:	07 00 0e 38 1c 38 1f f8 00 00 00 00 00 00 00 00     ...8.8..........
     2da:	0f e0 1c 70 1c 38 00 38 00 70 03 c0 03 c0 00 70     ...p.8.8.p.....p
     2ea:	00 38 1c 38 1c 70 0f e0 00 00 00 00 00 00 00 00     .8.8.p..........
     2fa:	00 e0 01 e0 03 e0 06 e0 0c e0 18 e0 1f f8 1f f8     ................
     30a:	00 e0 00 e0 00 e0 03 f8 00 00 00 00 00 00 00 00     ................
     31a:	1f f8 1c 00 1c 00 1c 00 1c 00 1f e0 1f f0 00 78     ...............x
     32a:	00 38 1c 38 1c 70 0f e0 00 00 00 00 00 00 00 00     .8.8.p..........
     33a:	03 e0 07 00 0e 00 1c 00 1c 00 1f f0 1f f8 1c 38     ...............8
     34a:	1c 38 1c 38 1c 38 0f f0 00 00 00 00 00 00 00 00     .8.8.8..........
     35a:	1f fc 1c 1c 1c 1c 1c 1c 00 1c 00 38 00 70 00 e0     ...........8.p..
     36a:	01 c0 03 80 03 80 03 80 00 00 00 00 00 00 00 00     ................
     37a:	0f f0 1c 38 1c 38 1c 38 1f 38 07 e0 07 e0 1c f8     ...8.8.8.8......
     38a:	1c 38 1c 38 1c 38 0f f0 00 00 00 00 00 00 00 00     .8.8.8..........
     39a:	0f f0 1c 38 1c 38 1c 38 1c 38 1f f8 0f f8 00 38     ...8.8.8.8.....8
     3aa:	00 38 00 70 00 e0 07 c0 00 00 00 00 00 00 00 00     .8.p............
     3ba:	00 00 00 00 03 80 03 80 03 80 00 00 00 00 03 80     ................
     3ca:	03 80 03 80 00 00 00 00 00 00 00 00 00 00 00 00     ................
     3da:	00 00 00 00 03 80 03 80 03 80 00 00 00 00 03 80     ................
     3ea:	03 80 03 80 07 00 00 00 00 00 00 00 00 00 00 70     ...............p
     3fa:	00 e0 01 c0 03 80 07 00 0e 00 1c 00 1c 00 0e 00     ................
     40a:	07 00 03 80 01 c0 00 e0 00 70 00 00 00 00 00 00     .........p......
     41a:	00 00 00 00 00 00 3f fc 3f fc 00 00 00 00 3f fc     ......?.?.....?.
     42a:	3f fc 00 00 00 00 00 00 00 00 00 00 00 00 1c 00     ?...............
     43a:	0e 00 07 00 03 80 01 c0 00 e0 00 70 00 70 00 e0     ...........p.p..
     44a:	01 c0 03 80 07 00 0e 00 1c 00 00 00 00 00 03 c0     ................
     45a:	0f f0 1e 78 18 38 00 38 00 70 00 e0 01 c0 01 c0     ...x.8.8.p......
     46a:	00 00 00 00 01 c0 01 c0 01 c0 00 00 00 00 0f f8     ................
     47a:	1c 1c 1c 1c 1c 1c 1c 1c 1c fc 1c fc 1c fc 1c fc     ................
     48a:	1c 00 1c 00 1c 00 1f f0 07 f8 00 00 00 00 00 00     ................
     49a:	03 c0 07 e0 0e 70 1c 38 1c 38 1c 38 1c 38 1f f8     .....p.8.8.8.8..
     4aa:	1c 38 1c 38 1c 38 1c 38 00 00 00 00 00 00 00 00     .8.8.8.8........
     4ba:	1f f0 0e 38 0e 38 0e 38 0e 38 0f f0 0f f0 0e 38     ...8.8.8.8.....8
     4ca:	0e 38 0e 38 0e 38 1f f0 00 00 00 00 00 00 00 00     .8.8.8..........
     4da:	07 f0 0e 38 1c 38 1c 00 1c 00 1c 00 1c 00 1c 00     ...8.8..........
     4ea:	1c 00 1c 38 0e 38 07 f0 00 00 00 00 00 00 00 00     ...8.8..........
     4fa:	1f e0 0e 70 0e 38 0e 38 0e 38 0e 38 0e 38 0e 38     ...p.8.8.8.8.8.8
     50a:	0e 38 0e 38 0e 70 1f e0 00 00 00 00 00 00 00 00     .8.8.p..........
     51a:	1f f8 0e 18 0e 08 0e 00 0e 30 0f f0 0f f0 0e 30     .........0.....0
     52a:	0e 00 0e 08 0e 18 1f f8 00 00 00 00 00 00 00 00     ................
     53a:	1f f8 0e 18 0e 08 0e 00 0e 30 0f f0 0f f0 0e 30     .........0.....0
     54a:	0e 00 0e 00 0e 00 1f 00 00 00 00 00 00 00 00 00     ................
     55a:	07 f0 0e 38 1c 38 1c 38 1c 00 1c 00 1c 00 1c f8     ...8.8.8........
     56a:	1c 38 1c 38 0e 38 07 f8 00 00 00 00 00 00 00 00     .8.8.8..........
     57a:	1c 70 1c 70 1c 70 1c 70 1c 70 1f f0 1f f0 1c 70     .p.p.p.p.p.....p
     58a:	1c 70 1c 70 1c 70 1c 70 00 00 00 00 00 00 00 00     .p.p.p.p........
     59a:	0f e0 03 80 03 80 03 80 03 80 03 80 03 80 03 80     ................
     5aa:	03 80 03 80 03 80 0f e0 00 00 00 00 00 00 00 00     ................
     5ba:	01 fc 00 70 00 70 00 70 00 70 00 70 00 70 38 70     ...p.p.p.p.p.p8p
     5ca:	38 70 38 70 38 70 0f e0 00 00 00 00 00 00 00 00     8p8p8p..........
     5da:	1e 38 0e 38 0e 70 0e e0 0f c0 0f 80 0f 80 0f c0     .8.8.p..........
     5ea:	0e e0 0e 70 0e 38 1e 38 00 00 00 00 00 00 00 00     ...p.8.8........
     5fa:	1f 00 0e 00 0e 00 0e 00 0e 00 0e 00 0e 00 0e 00     ................
     60a:	0e 08 0e 18 0e 38 1f f8 00 00 00 00 00 00 00 00     .....8..........
     61a:	1c 1c 1e 3c 1f 7c 1f fc 1f fc 1d dc 1c 9c 1c 1c     ...<.|..........
     62a:	1c 1c 1c 1c 1c 1c 1c 1c 00 00 00 00 00 00 00 00     ................
     63a:	1c 1c 1c 1c 1e 1c 1f 1c 1f 9c 1d dc 1c fc 1c 7c     ...............|
     64a:	1c 3c 1c 1c 1c 1c 1c 1c 00 00 00 00 00 00 00 00     .<..............
     65a:	03 e0 07 f0 0e 38 1c 1c 1c 1c 1c 1c 1c 1c 1c 1c     .....8..........
     66a:	1c 1c 0e 38 07 f0 03 e0 00 00 00 00 00 00 00 00     ...8............
     67a:	1f f0 0e 38 0e 38 0e 38 0e 38 0f f0 0f f0 0e 00     ...8.8.8.8......
     68a:	0e 00 0e 00 0e 00 1f 00 00 00 00 00 00 00 00 00     ................
     69a:	03 e0 0f 78 0e 38 1c 1c 1c 1c 1c 1c 1c 1c 1c 7c     ...x.8.........|
     6aa:	1c fc 0f f8 0f f8 00 38 00 fc 00 00 00 00 00 00     .......8........
     6ba:	1f f0 0e 38 0e 38 0e 38 0e 38 0f f0 0f f0 0e 70     ...8.8.8.8.....p
     6ca:	0e 38 0e 38 0e 38 1e 38 00 00 00 00 00 00 00 00     .8.8.8.8........
     6da:	0f f0 1c 38 1c 38 1c 38 1c 00 0f e0 07 f0 00 38     ...8.8.8.......8
     6ea:	1c 38 1c 38 1c 38 0f f0 00 00 00 00 00 00 00 00     .8.8.8..........
     6fa:	1f fc 19 cc 11 c4 01 c0 01 c0 01 c0 01 c0 01 c0     ................
     70a:	01 c0 01 c0 01 c0 07 f0 00 00 00 00 00 00 00 00     ................
     71a:	1c 70 1c 70 1c 70 1c 70 1c 70 1c 70 1c 70 1c 70     .p.p.p.p.p.p.p.p
     72a:	1c 70 1c 70 1c 70 0f e0 00 00 00 00 00 00 00 00     .p.p.p..........
     73a:	1c 70 1c 70 1c 70 1c 70 1c 70 1c 70 1c 70 1c 70     .p.p.p.p.p.p.p.p
     74a:	1c 70 0e e0 07 c0 03 80 00 00 00 00 00 00 00 00     .p..............
     75a:	1c 1c 1c 1c 1c 1c 1c 1c 1c 1c 1c 9c 1c 9c 1c 9c     ................
     76a:	0f f8 0f f8 07 70 07 70 00 00 00 00 00 00 00 00     .....p.p........
     77a:	1c 70 1c 70 1c 70 0e e0 07 c0 03 80 03 80 07 c0     .p.p.p..........
     78a:	0e e0 1c 70 1c 70 1c 70 00 00 00 00 00 00 00 00     ...p.p.p........
     79a:	1c 70 1c 70 1c 70 1c 70 1c 70 0e e0 07 c0 03 80     .p.p.p.p.p......
     7aa:	03 80 03 80 03 80 0f e0 00 00 00 00 00 00 00 00     ................
     7ba:	1f f8 1c 38 18 38 10 70 00 e0 01 c0 03 80 07 00     ...8.8.p........
     7ca:	0e 08 1c 18 1c 38 1f f8 00 00 00 00 00 00 00 00     .....8..........
     7da:	07 f0 07 00 07 00 07 00 07 00 07 00 07 00 07 00     ................
     7ea:	07 00 07 00 07 00 07 f0 00 00 00 00 00 00 00 00     ................
     7fa:	10 00 18 00 1c 00 0e 00 07 00 03 80 01 c0 00 e0     ................
     80a:	00 70 00 38 00 1c 00 07 00 00 00 00 00 00 00 00     .p.8............
     81a:	07 f0 00 70 00 70 00 70 00 70 00 70 00 70 00 70     ...p.p.p.p.p.p.p
     82a:	00 70 00 70 00 70 07 f0 00 00 00 00 00 00 01 80     .p.p.p..........
     83a:	03 c0 07 e0 0e 70 1c 38 00 00 00 00 00 00 00 00     .....p.8........
	...
     872:	7f ff 7f ff 00 00 00 00 1c 00 1c 00 07 00 07 00     ................
	...
     8a2:	0f e0 00 70 00 70 0f f0 1c 70 1c 70 1c 70 0f d8     ...p.p...p.p.p..
	...
     8ba:	1e 00 0e 00 0e 00 0e 00 0f f0 0e 38 0e 38 0e 38     ...........8.8.8
     8ca:	0e 38 0e 38 0e 38 1b f0 00 00 00 00 00 00 00 00     .8.8.8..........
	...
     8e2:	0f e0 1c 70 1c 70 1c 00 1c 00 1c 70 1c 70 0f e0     ...p.p.....p.p..
	...
     8fa:	00 f8 00 70 00 70 00 70 0f f0 1c 70 1c 70 1c 70     ...p.p.p...p.p.p
     90a:	1c 70 1c 70 1c 70 0f d8 00 00 00 00 00 00 00 00     .p.p.p..........
	...
     922:	0f e0 1c 70 1c 70 1f f0 1c 00 1c 70 1c 70 0f e0     ...p.p.....p.p..
	...
     93a:	03 e0 07 70 07 70 07 00 07 00 1f e0 1f e0 07 00     ...p.p..........
     94a:	07 00 07 00 07 00 1f c0 00 00 00 00 00 00 00 00     ................
	...
     962:	0f d8 1c 70 1c 70 1c 70 1c 70 0f f0 07 f0 00 70     ...p.p.p.p.....p
     972:	1c 70 0f e0 00 00 00 00 1e 00 0e 00 0e 00 0e 00     .p..............
     982:	0e f0 0f 38 0f 38 0e 38 0e 38 0e 38 0e 38 1e 38     ...8.8.8.8.8.8.8
	...
     99a:	01 c0 01 c0 01 c0 00 00 0f c0 01 c0 01 c0 01 c0     ................
     9aa:	01 c0 01 c0 01 c0 0f f8 00 00 00 00 00 00 00 00     ................
     9ba:	00 70 00 70 00 70 00 00 03 f0 00 70 00 70 00 70     .p.p.p.....p.p.p
     9ca:	00 70 00 70 00 70 1c 70 0c f0 07 e0 00 00 00 00     .p.p.p.p........
     9da:	1e 00 0e 00 0e 00 0e 00 0e 38 0e 70 0e e0 0f c0     .........8.p....
     9ea:	0e e0 0e 70 0e 38 1e 38 00 00 00 00 00 00 00 00     ...p.8.8........
     9fa:	0f c0 01 c0 01 c0 01 c0 01 c0 01 c0 01 c0 01 c0     ................
     a0a:	01 c0 01 c0 01 c0 0f f8 00 00 00 00 00 00 00 00     ................
	...
     a22:	1f f8 1c 9c 1c 9c 1c 9c 1c 9c 1c 9c 1c 9c 1c 9c     ................
	...
     a42:	1f e0 1c 70 1c 70 1c 70 1c 70 1c 70 1c 70 1c 70     ...p.p.p.p.p.p.p
	...
     a62:	0f e0 1c 70 1c 70 1c 70 1c 70 1c 70 1c 70 0f e0     ...p.p.p.p.p.p..
	...
     a82:	1b f0 0e 38 0e 38 0e 38 0e 38 0e 38 0f f0 0e 00     ...8.8.8.8.8....
     a92:	0e 00 1f 00 00 00 00 00 00 00 00 00 00 00 00 00     ................
     aa2:	1f b0 38 e0 38 e0 38 e0 38 e0 38 e0 1f e0 00 e0     ..8.8.8.8.8.....
     ab2:	00 e0 01 f0 00 00 00 00 00 00 00 00 00 00 00 00     ................
     ac2:	1e f0 0f f8 0f 38 0e 00 0e 00 0e 00 0e 00 1f 00     .....8..........
	...
     ae2:	0f e0 1c 30 1c 30 0f 80 03 e0 18 70 18 70 0f e0     ...0.0.....p.p..
	...
     afa:	00 00 01 00 03 00 07 00 1f f0 07 00 07 00 07 00     ................
     b0a:	07 00 07 70 07 70 03 e0 00 00 00 00 00 00 00 00     ...p.p..........
	...
     b22:	1c 70 1c 70 1c 70 1c 70 1c 70 1c 70 1c 70 0f d8     .p.p.p.p.p.p.p..
	...
     b42:	1c 70 1c 70 1c 70 1c 70 1c 70 0e e0 07 c0 03 80     .p.p.p.p.p......
	...
     b62:	1c 1c 1c 1c 1c 1c 1c 9c 1c 9c 0f f8 07 70 07 70     .............p.p
	...
     b82:	1c e0 1c e0 0f c0 07 80 07 80 0f c0 1c e0 1c e0     ................
	...
     ba2:	0e 38 0e 38 0e 38 0e 38 0e 38 07 f0 03 e0 00 e0     .8.8.8.8.8......
     bb2:	01 c0 1f 80 00 00 00 00 00 00 00 00 00 00 00 00     ................
     bc2:	1f e0 18 e0 11 c0 03 80 07 00 0e 20 1c 60 1f e0     ........... .`..
	...
     bda:	01 f8 03 80 03 80 03 80 07 00 1c 00 1c 00 07 00     ................
     bea:	03 80 03 80 03 80 01 f8 00 00 00 00 00 00 01 c0     ................
     bfa:	01 c0 01 c0 01 c0 01 c0 01 c0 01 c0 01 c0 01 c0     ................
     c0a:	01 c0 01 c0 01 c0 01 c0 01 c0 00 00 00 00 00 00     ................
     c1a:	1f 80 01 c0 01 c0 01 c0 00 e0 00 38 00 38 00 e0     ...........8.8..
     c2a:	01 c0 01 c0 01 c0 1f 80 00 00 00 00 00 00 00 00     ................
     c3a:	1f 1c 3b 9c 39 dc 38 f8 00 00 00 00 00 00 00 00     ..;.9.8.........
	...

00000c56 <__ctors_start>:
     c56:	c5 09       	sbc	r28, r5

00000c58 <__ctors_end>:
     c58:	11 24       	eor	r1, r1
     c5a:	1f be       	out	0x3f, r1	; 63
     c5c:	cf e5       	ldi	r28, 0x5F	; 95
     c5e:	d4 e0       	ldi	r29, 0x04	; 4
     c60:	de bf       	out	0x3e, r29	; 62
     c62:	cd bf       	out	0x3d, r28	; 61

00000c64 <__do_copy_data>:
     c64:	10 e0       	ldi	r17, 0x00	; 0
     c66:	a0 e6       	ldi	r26, 0x60	; 96
     c68:	b0 e0       	ldi	r27, 0x00	; 0
     c6a:	e4 e7       	ldi	r30, 0x74	; 116
     c6c:	fc e2       	ldi	r31, 0x2C	; 44
     c6e:	02 c0       	rjmp	.+4      	; 0xc74 <__do_copy_data+0x10>
     c70:	05 90       	lpm	r0, Z+
     c72:	0d 92       	st	X+, r0
     c74:	a4 37       	cpi	r26, 0x74	; 116
     c76:	b1 07       	cpc	r27, r17
     c78:	d9 f7       	brne	.-10     	; 0xc70 <__do_copy_data+0xc>

00000c7a <__do_clear_bss>:
     c7a:	22 e0       	ldi	r18, 0x02	; 2
     c7c:	a4 e7       	ldi	r26, 0x74	; 116
     c7e:	b0 e0       	ldi	r27, 0x00	; 0
     c80:	01 c0       	rjmp	.+2      	; 0xc84 <.do_clear_bss_start>

00000c82 <.do_clear_bss_loop>:
     c82:	1d 92       	st	X+, r1

00000c84 <.do_clear_bss_start>:
     c84:	af 37       	cpi	r26, 0x7F	; 127
     c86:	b2 07       	cpc	r27, r18
     c88:	e1 f7       	brne	.-8      	; 0xc82 <.do_clear_bss_loop>

00000c8a <__do_global_ctors>:
     c8a:	16 e0       	ldi	r17, 0x06	; 6
     c8c:	cc e2       	ldi	r28, 0x2C	; 44
     c8e:	d6 e0       	ldi	r29, 0x06	; 6
     c90:	04 c0       	rjmp	.+8      	; 0xc9a <__do_global_ctors+0x10>
     c92:	21 97       	sbiw	r28, 0x01	; 1
     c94:	fe 01       	movw	r30, r28
     c96:	0e 94 be 12 	call	0x257c	; 0x257c <__tablejump2__>
     c9a:	cb 32       	cpi	r28, 0x2B	; 43
     c9c:	d1 07       	cpc	r29, r17
     c9e:	c9 f7       	brne	.-14     	; 0xc92 <__do_global_ctors+0x8>
     ca0:	0e 94 85 07 	call	0xf0a	; 0xf0a <main>
     ca4:	0c 94 38 16 	jmp	0x2c70	; 0x2c70 <_exit>

00000ca8 <__bad_interrupt>:
     ca8:	0c 94 00 00 	jmp	0	; 0x0 <__vectors>

00000cac <fastbitmap_1bit>:
		r20:r21 fg color 
		r18:r19 bg color
	*/

	/* this block sets up the TOGGLE_WR_FAST registers r30:r31 */
	in r26, _SFR_IO_ADDR(WR_PORT)
     cac:	a5 b3       	in	r26, 0x15	; 21
	mov r27, r26
     cae:	ba 2f       	mov	r27, r26
	set
     cb0:	68 94       	set
	bld r26,WR_PIN
     cb2:	a7 f9       	bld	r26, 7
	clt
     cb4:	e8 94       	clt
	bld r27,WR_PIN
     cb6:	b7 f9       	bld	r27, 7
	
	movw r30, r22
     cb8:	fb 01       	movw	r30, r22

00000cba <FB1BIT_LOOP>:

FB1BIT_LOOP:

	LPM r0, Z+
     cba:	05 90       	lpm	r0, Z+

	PLOT_MONO_PIXEL r0,7
     cbc:	07 fa       	bst	r0, 7
     cbe:	1e f4       	brtc	.+6      	; 0xcc6 <FB1BIT_LOOP+0xc>
     cc0:	4b bb       	out	0x1b, r20	; 27
     cc2:	52 bb       	out	0x12, r21	; 18
     cc4:	02 c0       	rjmp	.+4      	; 0xcca <FB1BIT_LOOP+0x10>
     cc6:	2b bb       	out	0x1b, r18	; 27
     cc8:	32 bb       	out	0x12, r19	; 18
     cca:	b5 bb       	out	0x15, r27	; 21
     ccc:	a5 bb       	out	0x15, r26	; 21
	PLOT_MONO_PIXEL r0,6
     cce:	06 fa       	bst	r0, 6
     cd0:	1e f4       	brtc	.+6      	; 0xcd8 <FB1BIT_LOOP+0x1e>
     cd2:	4b bb       	out	0x1b, r20	; 27
     cd4:	52 bb       	out	0x12, r21	; 18
     cd6:	02 c0       	rjmp	.+4      	; 0xcdc <FB1BIT_LOOP+0x22>
     cd8:	2b bb       	out	0x1b, r18	; 27
     cda:	32 bb       	out	0x12, r19	; 18
     cdc:	b5 bb       	out	0x15, r27	; 21
     cde:	a5 bb       	out	0x15, r26	; 21
	PLOT_MONO_PIXEL r0,5
     ce0:	05 fa       	bst	r0, 5
     ce2:	1e f4       	brtc	.+6      	; 0xcea <FB1BIT_LOOP+0x30>
     ce4:	4b bb       	out	0x1b, r20	; 27
     ce6:	52 bb       	out	0x12, r21	; 18
     ce8:	02 c0       	rjmp	.+4      	; 0xcee <FB1BIT_LOOP+0x34>
     cea:	2b bb       	out	0x1b, r18	; 27
     cec:	32 bb       	out	0x12, r19	; 18
     cee:	b5 bb       	out	0x15, r27	; 21
     cf0:	a5 bb       	out	0x15, r26	; 21
	PLOT_MONO_PIXEL r0,4
     cf2:	04 fa       	bst	r0, 4
     cf4:	1e f4       	brtc	.+6      	; 0xcfc <FB1BIT_LOOP+0x42>
     cf6:	4b bb       	out	0x1b, r20	; 27
     cf8:	52 bb       	out	0x12, r21	; 18
     cfa:	02 c0       	rjmp	.+4      	; 0xd00 <FB1BIT_LOOP+0x46>
     cfc:	2b bb       	out	0x1b, r18	; 27
     cfe:	32 bb       	out	0x12, r19	; 18
     d00:	b5 bb       	out	0x15, r27	; 21
     d02:	a5 bb       	out	0x15, r26	; 21
	PLOT_MONO_PIXEL r0,3
     d04:	03 fa       	bst	r0, 3
     d06:	1e f4       	brtc	.+6      	; 0xd0e <FB1BIT_LOOP+0x54>
     d08:	4b bb       	out	0x1b, r20	; 27
     d0a:	52 bb       	out	0x12, r21	; 18
     d0c:	02 c0       	rjmp	.+4      	; 0xd12 <FB1BIT_LOOP+0x58>
     d0e:	2b bb       	out	0x1b, r18	; 27
     d10:	32 bb       	out	0x12, r19	; 18
     d12:	b5 bb       	out	0x15, r27	; 21
     d14:	a5 bb       	out	0x15, r26	; 21
	PLOT_MONO_PIXEL r0,2
     d16:	02 fa       	bst	r0, 2
     d18:	1e f4       	brtc	.+6      	; 0xd20 <FB1BIT_LOOP+0x66>
     d1a:	4b bb       	out	0x1b, r20	; 27
     d1c:	52 bb       	out	0x12, r21	; 18
     d1e:	02 c0       	rjmp	.+4      	; 0xd24 <FB1BIT_LOOP+0x6a>
     d20:	2b bb       	out	0x1b, r18	; 27
     d22:	32 bb       	out	0x12, r19	; 18
     d24:	b5 bb       	out	0x15, r27	; 21
     d26:	a5 bb       	out	0x15, r26	; 21
	PLOT_MONO_PIXEL r0,1
     d28:	01 fa       	bst	r0, 1
     d2a:	1e f4       	brtc	.+6      	; 0xd32 <FB1BIT_LOOP+0x78>
     d2c:	4b bb       	out	0x1b, r20	; 27
     d2e:	52 bb       	out	0x12, r21	; 18
     d30:	02 c0       	rjmp	.+4      	; 0xd36 <FB1BIT_LOOP+0x7c>
     d32:	2b bb       	out	0x1b, r18	; 27
     d34:	32 bb       	out	0x12, r19	; 18
     d36:	b5 bb       	out	0x15, r27	; 21
     d38:	a5 bb       	out	0x15, r26	; 21
	PLOT_MONO_PIXEL r0,0
     d3a:	00 fa       	bst	r0, 0
     d3c:	1e f4       	brtc	.+6      	; 0xd44 <FB1BIT_LOOP+0x8a>
     d3e:	4b bb       	out	0x1b, r20	; 27
     d40:	52 bb       	out	0x12, r21	; 18
     d42:	02 c0       	rjmp	.+4      	; 0xd48 <FB1BIT_LOOP+0x8e>
     d44:	2b bb       	out	0x1b, r18	; 27
     d46:	32 bb       	out	0x12, r19	; 18
     d48:	b5 bb       	out	0x15, r27	; 21
     d4a:	a5 bb       	out	0x15, r26	; 21

	SUB16 r24,r25,1
     d4c:	81 50       	subi	r24, 0x01	; 1
     d4e:	90 40       	sbci	r25, 0x00	; 0

	cpi r24,0
     d50:	80 30       	cpi	r24, 0x00	; 0
	cpc r25,r1
     d52:	91 05       	cpc	r25, r1
	breq FB1BIT_DONE
     d54:	11 f0       	breq	.+4      	; 0xd5a <FB1BIT_DONE>
	jmp FB1BIT_LOOP
     d56:	0c 94 5d 06 	jmp	0xcba	; 0xcba <FB1BIT_LOOP>

00000d5a <FB1BIT_DONE>:


FB1BIT_DONE:

	ret;
     d5a:	08 95       	ret

00000d5c <fastbitmap_16bit>:
		r24:r25 lenght in pixels/words
		r22:r23 pointer to data
	*/

	/* this block sets up the TOGGLE_WR_FAST registers r30:r31 */
	in r26, _SFR_IO_ADDR(WR_PORT)
     d5c:	a5 b3       	in	r26, 0x15	; 21
	mov r27, r26
     d5e:	ba 2f       	mov	r27, r26
	set
     d60:	68 94       	set
	bld r26,WR_PIN
     d62:	a7 f9       	bld	r26, 7
	clt
     d64:	e8 94       	clt
	bld r27,WR_PIN
     d66:	b7 f9       	bld	r27, 7
	
	movw r30, r22
     d68:	fb 01       	movw	r30, r22

00000d6a <FB16BIT_LOOP>:

FB16BIT_LOOP:

	
	LPM r0, Z+	
     d6a:	05 90       	lpm	r0, Z+
	out DPHIO, r0	
     d6c:	02 ba       	out	0x12, r0	; 18
	LPM r0, Z+	
     d6e:	05 90       	lpm	r0, Z+
	out DPLIO, r0
     d70:	0b ba       	out	0x1b, r0	; 27

	TOGGLE_WR_FAST r27,r26	// place a pixel!
     d72:	b5 bb       	out	0x15, r27	; 21
     d74:	a5 bb       	out	0x15, r26	; 21

	SUB16 r24,r25,1
     d76:	81 50       	subi	r24, 0x01	; 1
     d78:	90 40       	sbci	r25, 0x00	; 0

	cpi r24,0
     d7a:	80 30       	cpi	r24, 0x00	; 0
	cpc r25,r1
     d7c:	91 05       	cpc	r25, r1
	breq FB16BIT_DONE
     d7e:	11 f0       	breq	.+4      	; 0xd84 <FB16BIT_DONE>
	jmp FB16BIT_LOOP
     d80:	0c 94 b5 06 	jmp	0xd6a	; 0xd6a <FB16BIT_LOOP>

00000d84 <FB16BIT_DONE>:


FB16BIT_DONE:

	ret;
     d84:	08 95       	ret

00000d86 <fastbitmap_pb565>:
		r24:r25 data
		
	*/

	/* this block sets up the TOGGLE_WR_FAST registers r30:r31 */
	in r26, _SFR_IO_ADDR(WR_PORT)
     d86:	a5 b3       	in	r26, 0x15	; 21
	mov r27, r26
     d88:	ba 2f       	mov	r27, r26
	set
     d8a:	68 94       	set
	bld r26,WR_PIN
     d8c:	a7 f9       	bld	r26, 7
	clt
     d8e:	e8 94       	clt
	bld r27,WR_PIN
     d90:	b7 f9       	bld	r27, 7
	
	movw r30, r24
     d92:	fc 01       	movw	r30, r24

	clr r1
     d94:	11 24       	eor	r1, r1

00000d96 <PB565BIT_LOOP>:

PB565BIT_LOOP:
	
	LPM r18, Z+	
     d96:	25 91       	lpm	r18, Z+
	cpi r18,0
     d98:	20 30       	cpi	r18, 0x00	; 0
	breq PB565BIT_DONE
     d9a:	a9 f0       	breq	.+42     	; 0xdc6 <PB565BIT_DONE>
	
	bst r18,7
     d9c:	27 fb       	bst	r18, 7
	brtc PB565PLAIN
     d9e:	56 f4       	brtc	.+20     	; 0xdb4 <PB565PLAIN>
	
	// compressed loop.
	andi r18,0x7F
     da0:	2f 77       	andi	r18, 0x7F	; 127
	LPM r0, Z+
     da2:	05 90       	lpm	r0, Z+
	out DPHIO, r0
     da4:	02 ba       	out	0x12, r0	; 18
	LPM r0, Z+
     da6:	05 90       	lpm	r0, Z+
	out DPLIO, r0
     da8:	0b ba       	out	0x1b, r0	; 27

00000daa <PB565COMPRESSED>:
	

PB565COMPRESSED:
	TOGGLE_WR_FAST r27,r26
     daa:	b5 bb       	out	0x15, r27	; 21
     dac:	a5 bb       	out	0x15, r26	; 21
	dec r18
     dae:	2a 95       	dec	r18
	brne PB565COMPRESSED
     db0:	e1 f7       	brne	.-8      	; 0xdaa <PB565COMPRESSED>
	rjmp PB565BIT_LOOP
     db2:	f1 cf       	rjmp	.-30     	; 0xd96 <PB565BIT_LOOP>

00000db4 <PB565PLAIN>:


PB565PLAIN:

	LPM r0, Z+
     db4:	05 90       	lpm	r0, Z+
	out DPHIO, r0
     db6:	02 ba       	out	0x12, r0	; 18
	LPM r0, Z+
     db8:	05 90       	lpm	r0, Z+
	out DPLIO, r0
     dba:	0b ba       	out	0x1b, r0	; 27
	TOGGLE_WR_FAST r27,r26
     dbc:	b5 bb       	out	0x15, r27	; 21
     dbe:	a5 bb       	out	0x15, r26	; 21
	dec r18
     dc0:	2a 95       	dec	r18
	brne PB565PLAIN
     dc2:	c1 f7       	brne	.-16     	; 0xdb4 <PB565PLAIN>
	rjmp PB565BIT_LOOP
     dc4:	e8 cf       	rjmp	.-48     	; 0xd96 <PB565BIT_LOOP>

00000dc6 <PB565BIT_DONE>:




PB565BIT_DONE:
	clr r0
     dc6:	00 24       	eor	r0, r0
	ret;
     dc8:	08 95       	ret

00000dca <fastfill>:
// r22-r25 unsigned 32 bit number of pixels to set.
// note that only 17 bits of this are used, so max pixels
// is 131071, which is fine since we only have 320 * 240 pixels or 76800 loops
fastfill:

	clr r18
     dca:	22 27       	eor	r18, r18

	// devide by 2
	// no need for register 25 it has no bits we care about.
	lsr r24
     dcc:	86 95       	lsr	r24
	ror r23
     dce:	77 95       	ror	r23
	ror r22
     dd0:	67 95       	ror	r22
	ror r18 // take carry onto r18 (modulus)
     dd2:	27 95       	ror	r18

	// devide by 4
	// no need for register 24, it had a max of 1 bit we care about.
	lsr r23
     dd4:	76 95       	lsr	r23
	ror r22
     dd6:	67 95       	ror	r22
	ror r18 // take carry onto r18 (modulus)
     dd8:	27 95       	ror	r18

	// devide by 8
	//lsr r24
	lsr r23
     dda:	76 95       	lsr	r23
	ror r22
     ddc:	67 95       	ror	r22
	ror r18 // take carry onto r18 (modulus)
     dde:	27 95       	ror	r18

	// devide by 16		
	// lsr r24
	lsr r23
     de0:	76 95       	lsr	r23
	ror r22
     de2:	67 95       	ror	r22
	ror r18 // take carry onto r18 (modulus)
     de4:	27 95       	ror	r18

	// finish rolling a full 8 bits aka swap nibbles
	swap r18
     de6:	22 95       	swap	r18

	movw r24, r22
     de8:	cb 01       	movw	r24, r22

00000dea <fastfill2>:
// r24 + r25 hold 16 bit unsigned number of 16xloops.
// r18 holds 8 bit unsigned numner of single loops
fastfill2:

	// prepare the out port registers
	in r30, _SFR_IO_ADDR(WR_PORT)
     dea:	e5 b3       	in	r30, 0x15	; 21
	mov r31, r30
     dec:	fe 2f       	mov	r31, r30
	set
     dee:	68 94       	set
	bld r30,WR_PIN
     df0:	e7 f9       	bld	r30, 7
	clt
     df2:	e8 94       	clt
	bld r31,WR_PIN
     df4:	f7 f9       	bld	r31, 7

	sbiw r24,0 // subtract zero and test if zero	
     df6:	00 97       	sbiw	r24, 0x00	; 0
	breq exitloop16
     df8:	11 f1       	breq	.+68     	; 0xe3e <exitloop16>

00000dfa <loop16>:
loop16:
		
	TOGGLE_WR_FAST r31,r30
     dfa:	f5 bb       	out	0x15, r31	; 21
     dfc:	e5 bb       	out	0x15, r30	; 21
	TOGGLE_WR_FAST r31,r30
     dfe:	f5 bb       	out	0x15, r31	; 21
     e00:	e5 bb       	out	0x15, r30	; 21
	TOGGLE_WR_FAST r31,r30
     e02:	f5 bb       	out	0x15, r31	; 21
     e04:	e5 bb       	out	0x15, r30	; 21
	TOGGLE_WR_FAST r31,r30
     e06:	f5 bb       	out	0x15, r31	; 21
     e08:	e5 bb       	out	0x15, r30	; 21
		
	TOGGLE_WR_FAST r31,r30
     e0a:	f5 bb       	out	0x15, r31	; 21
     e0c:	e5 bb       	out	0x15, r30	; 21
	TOGGLE_WR_FAST r31,r30
     e0e:	f5 bb       	out	0x15, r31	; 21
     e10:	e5 bb       	out	0x15, r30	; 21
	TOGGLE_WR_FAST r31,r30
     e12:	f5 bb       	out	0x15, r31	; 21
     e14:	e5 bb       	out	0x15, r30	; 21
	TOGGLE_WR_FAST r31,r30
     e16:	f5 bb       	out	0x15, r31	; 21
     e18:	e5 bb       	out	0x15, r30	; 21
		
	TOGGLE_WR_FAST r31,r30
     e1a:	f5 bb       	out	0x15, r31	; 21
     e1c:	e5 bb       	out	0x15, r30	; 21
	TOGGLE_WR_FAST r31,r30
     e1e:	f5 bb       	out	0x15, r31	; 21
     e20:	e5 bb       	out	0x15, r30	; 21
	TOGGLE_WR_FAST r31,r30
     e22:	f5 bb       	out	0x15, r31	; 21
     e24:	e5 bb       	out	0x15, r30	; 21
	TOGGLE_WR_FAST r31,r30
     e26:	f5 bb       	out	0x15, r31	; 21
     e28:	e5 bb       	out	0x15, r30	; 21
		
	TOGGLE_WR_FAST r31,r30
     e2a:	f5 bb       	out	0x15, r31	; 21
     e2c:	e5 bb       	out	0x15, r30	; 21
	TOGGLE_WR_FAST r31,r30
     e2e:	f5 bb       	out	0x15, r31	; 21
     e30:	e5 bb       	out	0x15, r30	; 21
	TOGGLE_WR_FAST r31,r30
     e32:	f5 bb       	out	0x15, r31	; 21
     e34:	e5 bb       	out	0x15, r30	; 21
	TOGGLE_WR_FAST r31,r30
     e36:	f5 bb       	out	0x15, r31	; 21
     e38:	e5 bb       	out	0x15, r30	; 21

	sbiw r24,1	
     e3a:	01 97       	sbiw	r24, 0x01	; 1
	brne loop16
     e3c:	f1 f6       	brne	.-68     	; 0xdfa <loop16>

00000e3e <exitloop16>:

exitloop16:

	cpi r18,0
     e3e:	20 30       	cpi	r18, 0x00	; 0
	breq exitsingleloop
     e40:	21 f0       	breq	.+8      	; 0xe4a <exitsingleloop>

00000e42 <singleloop>:
singleloop:			
	TOGGLE_WR_FAST r31,r30
     e42:	f5 bb       	out	0x15, r31	; 21
     e44:	e5 bb       	out	0x15, r30	; 21
	dec r18
     e46:	2a 95       	dec	r18
	brne singleloop
     e48:	e1 f7       	brne	.-8      	; 0xe42 <singleloop>

00000e4a <exitsingleloop>:

exitsingleloop:
	ret 
     e4a:	08 95       	ret

00000e4c <fastfill3>:

// r22-r25 unsigned 32 bit number of pixels to set.
// note that only 17 bits of this are used, so max pixels
// is 131071, which is fine since we only have 320 * 240 pixels or 76800 loops
fastfill3:
	TOGGLE_WR
     e4c:	af 98       	cbi	0x15, 7	; 21
     e4e:	af 9a       	sbi	0x15, 7	; 21
	SUB32 r22,r23,r24,r25,1
     e50:	61 50       	subi	r22, 0x01	; 1
     e52:	70 40       	sbci	r23, 0x00	; 0
     e54:	80 40       	sbci	r24, 0x00	; 0
     e56:	90 40       	sbci	r25, 0x00	; 0
	brne fastfill3
     e58:	c9 f7       	brne	.-14     	; 0xe4c <fastfill3>

     e5a:	08 95       	ret

00000e5c <LCD_Write_COM>:
#include "as_macros.h"


.global LCD_Write_COM
LCD_Write_COM:
	BUS_START_REG
     e5c:	ae 98       	cbi	0x15, 6	; 21
	clr r1
     e5e:	11 24       	eor	r1, r1
	out DPLIO, r24
     e60:	8b bb       	out	0x1b, r24	; 27
	out DPHIO, r1
     e62:	12 ba       	out	0x12, r1	; 18
	TOGGLE_WR
     e64:	af 98       	cbi	0x15, 7	; 21
     e66:	af 9a       	sbi	0x15, 7	; 21
	ret
     e68:	08 95       	ret

00000e6a <LCD_Write_DATA>:

.global LCD_Write_DATA
LCD_Write_DATA:
	BUS_START_DATA	
     e6a:	ae 9a       	sbi	0x15, 6	; 21
	out DPLIO, r22
     e6c:	6b bb       	out	0x1b, r22	; 27
	out DPHIO, r24
     e6e:	82 bb       	out	0x12, r24	; 18
	TOGGLE_WR
     e70:	af 98       	cbi	0x15, 7	; 21
     e72:	af 9a       	sbi	0x15, 7	; 21
	ret
     e74:	08 95       	ret

00000e76 <LCD_Write_DATA2>:

.global LCD_Write_DATA2
LCD_Write_DATA2:
	BUS_START_DATA	
     e76:	ae 9a       	sbi	0x15, 6	; 21
	clr r1
     e78:	11 24       	eor	r1, r1
	out DPLIO, r24
     e7a:	8b bb       	out	0x1b, r24	; 27
	out DPHIO, r1
     e7c:	12 ba       	out	0x12, r1	; 18
	TOGGLE_WR
     e7e:	af 98       	cbi	0x15, 7	; 21
     e80:	af 9a       	sbi	0x15, 7	; 21
	ret
     e82:	08 95       	ret

00000e84 <LCD_Write_COM_DATA>:


.global LCD_Write_COM_DATA
LCD_Write_COM_DATA:
	
	BUS_START_REG
     e84:	ae 98       	cbi	0x15, 6	; 21
	clr r1
     e86:	11 24       	eor	r1, r1
	out DPLIO, r24
     e88:	8b bb       	out	0x1b, r24	; 27
	out DPHIO, r1
     e8a:	12 ba       	out	0x12, r1	; 18
	TOGGLE_WR
     e8c:	af 98       	cbi	0x15, 7	; 21
     e8e:	af 9a       	sbi	0x15, 7	; 21

	BUS_START_DATA	
     e90:	ae 9a       	sbi	0x15, 6	; 21
	out DPLIO, r22
     e92:	6b bb       	out	0x1b, r22	; 27
	out DPHIO, r23
     e94:	72 bb       	out	0x12, r23	; 18
	TOGGLE_WR
     e96:	af 98       	cbi	0x15, 7	; 21
     e98:	af 9a       	sbi	0x15, 7	; 21

	ret
     e9a:	08 95       	ret

00000e9c <LCD_Writ_Bus>:


.global LCD_Writ_Bus
	LCD_Writ_Bus:

	out DPHIO, r24
     e9c:	82 bb       	out	0x12, r24	; 18
	out DPLIO, r22
     e9e:	6b bb       	out	0x1b, r22	; 27
	TOGGLE_WR
     ea0:	af 98       	cbi	0x15, 7	; 21
     ea2:	af 9a       	sbi	0x15, 7	; 21

     ea4:	08 95       	ret

00000ea6 <_Z41__static_initialization_and_destruction_0ii>:
		_delay_ms(2);
		
		// The display's clear screen function is called at the end of each iteration to clear the screen for the next frame
		display.clrScr();
	}
     ea6:	0f 93       	push	r16
     ea8:	1f 93       	push	r17
     eaa:	cf 93       	push	r28
     eac:	df 93       	push	r29
     eae:	01 97       	sbiw	r24, 0x01	; 1
     eb0:	39 f5       	brne	.+78     	; 0xf00 <_Z41__static_initialization_and_destruction_0ii+0x5a>
     eb2:	6f 3f       	cpi	r22, 0xFF	; 255
     eb4:	7f 4f       	sbci	r23, 0xFF	; 255
     eb6:	21 f5       	brne	.+72     	; 0xf00 <_Z41__static_initialization_and_destruction_0ii+0x5a>
/*
* UTFT is a library that allows user to display images and text on various TFT (Thin-Film Transistor) displays
* UTFT display object will be used to draw components of the game on TFT LCD
*/

UTFT display; 
     eb8:	8c e6       	ldi	r24, 0x6C	; 108
     eba:	92 e0       	ldi	r25, 0x02	; 2
     ebc:	0e 94 d9 0a 	call	0x15b2	; 0x15b2 <_ZN4UTFTC1Ev>


/**
 * An array of 50 Pipe objects.
 */
Pipe pipes[50];
     ec0:	01 e3       	ldi	r16, 0x31	; 49
     ec2:	10 e0       	ldi	r17, 0x00	; 0
     ec4:	c8 e7       	ldi	r28, 0x78	; 120
     ec6:	d0 e0       	ldi	r29, 0x00	; 0
     ec8:	0f 3f       	cpi	r16, 0xFF	; 255
     eca:	8f ef       	ldi	r24, 0xFF	; 255
     ecc:	18 07       	cpc	r17, r24
     ece:	c1 f0       	breq	.+48     	; 0xf00 <_Z41__static_initialization_and_destruction_0ii+0x5a>
	 * Initializes the y-coordinate, speed, upper height, passed flag, and dontUse flag of the pipe.
	 */
	Pipe()
	{
		
		y = 220;
     ed0:	8c ed       	ldi	r24, 0xDC	; 220
     ed2:	90 e0       	ldi	r25, 0x00	; 0
     ed4:	99 83       	std	Y+1, r25	; 0x01
     ed6:	88 83       	st	Y, r24
		speed = 1;
     ed8:	81 e0       	ldi	r24, 0x01	; 1
     eda:	90 e0       	ldi	r25, 0x00	; 0
     edc:	9b 83       	std	Y+3, r25	; 0x03
     ede:	8a 83       	std	Y+2, r24	; 0x02
		upperHeight = rand() % 300;
     ee0:	0e 94 1f 13 	call	0x263e	; 0x263e <rand>
     ee4:	6c e2       	ldi	r22, 0x2C	; 44
     ee6:	71 e0       	ldi	r23, 0x01	; 1
     ee8:	0e 94 61 12 	call	0x24c2	; 0x24c2 <__divmodhi4>
     eec:	9d 83       	std	Y+5, r25	; 0x05
     eee:	8c 83       	std	Y+4, r24	; 0x04
		passed = 0;
     ef0:	19 86       	std	Y+9, r1	; 0x09
     ef2:	18 86       	std	Y+8, r1	; 0x08
		dontUse = 0;
     ef4:	1f 82       	std	Y+7, r1	; 0x07
     ef6:	1e 82       	std	Y+6, r1	; 0x06


/**
 * An array of 50 Pipe objects.
 */
Pipe pipes[50];
     ef8:	2a 96       	adiw	r28, 0x0a	; 10
     efa:	01 50       	subi	r16, 0x01	; 1
     efc:	11 09       	sbc	r17, r1
     efe:	e4 cf       	rjmp	.-56     	; 0xec8 <_Z41__static_initialization_and_destruction_0ii+0x22>
		_delay_ms(2);
		
		// The display's clear screen function is called at the end of each iteration to clear the screen for the next frame
		display.clrScr();
	}
     f00:	df 91       	pop	r29
     f02:	cf 91       	pop	r28
     f04:	1f 91       	pop	r17
     f06:	0f 91       	pop	r16
     f08:	08 95       	ret

00000f0a <main>:
		}
	}
};

int main(void)
{
     f0a:	cf 93       	push	r28
     f0c:	df 93       	push	r29
     f0e:	cd b7       	in	r28, 0x3d	; 61
     f10:	de b7       	in	r29, 0x3e	; 62
     f12:	64 97       	sbiw	r28, 0x14	; 20
     f14:	0f b6       	in	r0, 0x3f	; 63
     f16:	f8 94       	cli
     f18:	de bf       	out	0x3e, r29	; 62
     f1a:	0f be       	out	0x3f, r0	; 63
     f1c:	cd bf       	out	0x3d, r28	; 61
	
	// Button ports
	PORTB = 0xff;
     f1e:	8f ef       	ldi	r24, 0xFF	; 255
     f20:	88 bb       	out	0x18, r24	; 24
	DDRB = 0x00;
     f22:	17 ba       	out	0x17, r1	; 23
	
	// LCD init
	display.clrScr();
     f24:	8c e6       	ldi	r24, 0x6C	; 108
     f26:	92 e0       	ldi	r25, 0x02	; 2
     f28:	0e 94 93 0b 	call	0x1726	; 0x1726 <_ZN4UTFT6clrScrEv>
	display.InitLCD(LANDSCAPE);
     f2c:	61 e0       	ldi	r22, 0x01	; 1
     f2e:	8c e6       	ldi	r24, 0x6C	; 108
     f30:	92 e0       	ldi	r25, 0x02	; 2
     f32:	0e 94 11 0c 	call	0x1822	; 0x1822 <_ZN4UTFT7InitLCDEh>
     * Initializes the x and y coordinates to starting position of the bird
     */
	Bird()
	{
		x = 150;
		y = 60;
     f36:	0f 2e       	mov	r0, r31
     f38:	f6 e9       	ldi	r31, 0x96	; 150
     f3a:	8f 2e       	mov	r8, r31
     f3c:	91 2c       	mov	r9, r1
     f3e:	fc e3       	ldi	r31, 0x3C	; 60
     f40:	af 2e       	mov	r10, r31
     f42:	b1 2c       	mov	r11, r1
     f44:	f0 2d       	mov	r31, r0

	// Instance of Bird class
	Bird bird;
	
	// Loading random generated pipes into Pipe buffer
	for(int i = 0; i < 50; i++) {
     f46:	e1 2c       	mov	r14, r1
     f48:	f1 2c       	mov	r15, r1
     f4a:	22 e3       	ldi	r18, 0x32	; 50
     f4c:	e2 16       	cp	r14, r18
     f4e:	f1 04       	cpc	r15, r1
     f50:	6c f5       	brge	.+90     	; 0xfac <main+0xa2>
	 * Initializes the y-coordinate, speed, upper height, passed flag, and dontUse flag of the pipe.
	 */
	Pipe()
	{
		
		y = 220;
     f52:	8c ed       	ldi	r24, 0xDC	; 220
     f54:	90 e0       	ldi	r25, 0x00	; 0
     f56:	9a 83       	std	Y+2, r25	; 0x02
     f58:	89 83       	std	Y+1, r24	; 0x01
		speed = 1;
     f5a:	81 e0       	ldi	r24, 0x01	; 1
     f5c:	90 e0       	ldi	r25, 0x00	; 0
     f5e:	9c 83       	std	Y+4, r25	; 0x04
     f60:	8b 83       	std	Y+3, r24	; 0x03
		upperHeight = rand() % 300;
     f62:	0e 94 1f 13 	call	0x263e	; 0x263e <rand>
     f66:	6c e2       	ldi	r22, 0x2C	; 44
     f68:	71 e0       	ldi	r23, 0x01	; 1
     f6a:	0e 94 61 12 	call	0x24c2	; 0x24c2 <__divmodhi4>
     f6e:	9e 83       	std	Y+6, r25	; 0x06
     f70:	8d 83       	std	Y+5, r24	; 0x05
		passed = 0;
     f72:	1a 86       	std	Y+10, r1	; 0x0a
     f74:	19 86       	std	Y+9, r1	; 0x09
		dontUse = 0;
     f76:	18 86       	std	Y+8, r1	; 0x08
     f78:	1f 82       	std	Y+7, r1	; 0x07
	// Instance of Bird class
	Bird bird;
	
	// Loading random generated pipes into Pipe buffer
	for(int i = 0; i < 50; i++) {
		pipes[i] = Pipe();
     f7a:	d7 01       	movw	r26, r14
     f7c:	aa 0f       	add	r26, r26
     f7e:	bb 1f       	adc	r27, r27
     f80:	c7 01       	movw	r24, r14
     f82:	88 0f       	add	r24, r24
     f84:	99 1f       	adc	r25, r25
     f86:	88 0f       	add	r24, r24
     f88:	99 1f       	adc	r25, r25
     f8a:	88 0f       	add	r24, r24
     f8c:	99 1f       	adc	r25, r25
     f8e:	a8 0f       	add	r26, r24
     f90:	b9 1f       	adc	r27, r25
     f92:	a8 58       	subi	r26, 0x88	; 136
     f94:	bf 4f       	sbci	r27, 0xFF	; 255
     f96:	8a e0       	ldi	r24, 0x0A	; 10
     f98:	fe 01       	movw	r30, r28
     f9a:	31 96       	adiw	r30, 0x01	; 1
     f9c:	01 90       	ld	r0, Z+
     f9e:	0d 92       	st	X+, r0
     fa0:	8a 95       	dec	r24
     fa2:	e1 f7       	brne	.-8      	; 0xf9c <main+0x92>

	// Instance of Bird class
	Bird bird;
	
	// Loading random generated pipes into Pipe buffer
	for(int i = 0; i < 50; i++) {
     fa4:	3f ef       	ldi	r19, 0xFF	; 255
     fa6:	e3 1a       	sub	r14, r19
     fa8:	f3 0a       	sbc	r15, r19
     faa:	cf cf       	rjmp	.-98     	; 0xf4a <main+0x40>
	// The while loop is the main game loop that updates and renders the game elements
	while (1)
	{
		
		// The loop iterates through an array of pipes and draws and updates each pipe if it has not been marked as unused
		for (int i = 0; i < pipeCount; i++){
     fac:	e1 2c       	mov	r14, r1
     fae:	f1 2c       	mov	r15, r1
     fb0:	80 91 64 00 	lds	r24, 0x0064	; 0x800064 <pipeCount>
     fb4:	90 91 65 00 	lds	r25, 0x0065	; 0x800065 <pipeCount+0x1>
     fb8:	e8 16       	cp	r14, r24
     fba:	f9 06       	cpc	r15, r25
     fbc:	0c f0       	brlt	.+2      	; 0xfc0 <main+0xb6>
     fbe:	62 c0       	rjmp	.+196    	; 0x1084 <main+0x17a>
			if(pipes[i].dontUse == 0){
     fc0:	c7 01       	movw	r24, r14
     fc2:	88 0f       	add	r24, r24
     fc4:	99 1f       	adc	r25, r25
     fc6:	88 0f       	add	r24, r24
     fc8:	99 1f       	adc	r25, r25
     fca:	88 0f       	add	r24, r24
     fcc:	99 1f       	adc	r25, r25
     fce:	f7 01       	movw	r30, r14
     fd0:	ee 0f       	add	r30, r30
     fd2:	ff 1f       	adc	r31, r31
     fd4:	e8 0f       	add	r30, r24
     fd6:	f9 1f       	adc	r31, r25
     fd8:	e8 58       	subi	r30, 0x88	; 136
     fda:	ff 4f       	sbci	r31, 0xFF	; 255
     fdc:	86 81       	ldd	r24, Z+6	; 0x06
     fde:	97 81       	ldd	r25, Z+7	; 0x07
     fe0:	89 2b       	or	r24, r25
     fe2:	09 f0       	breq	.+2      	; 0xfe6 <main+0xdc>
     fe4:	4b c0       	rjmp	.+150    	; 0x107c <main+0x172>
				pipes[i].drawPipe();
     fe6:	c7 01       	movw	r24, r14
     fe8:	88 0f       	add	r24, r24
     fea:	99 1f       	adc	r25, r25
     fec:	88 0f       	add	r24, r24
     fee:	99 1f       	adc	r25, r25
     ff0:	88 0f       	add	r24, r24
     ff2:	99 1f       	adc	r25, r25
     ff4:	67 01       	movw	r12, r14
     ff6:	cc 0c       	add	r12, r12
     ff8:	dd 1c       	adc	r13, r13
     ffa:	8c 0d       	add	r24, r12
     ffc:	9d 1d       	adc	r25, r13
     ffe:	fc 01       	movw	r30, r24
    1000:	e8 58       	subi	r30, 0x88	; 136
    1002:	ff 4f       	sbci	r31, 0xFF	; 255
    1004:	6f 01       	movw	r12, r30
	 * Draws the pipe using the current x and y coordinates.
	 * This function sets the color to green and uses the `fillRect` function of the `display` object to draw two rectangles, one for the upper and one for the lower pipe.
	 */
	void drawPipe()
	{
		display.setColor(GREEN);
    1006:	20 e0       	ldi	r18, 0x00	; 0
    1008:	4f ef       	ldi	r20, 0xFF	; 255
    100a:	60 e0       	ldi	r22, 0x00	; 0
    100c:	8c e6       	ldi	r24, 0x6C	; 108
    100e:	92 e0       	ldi	r25, 0x02	; 2
    1010:	0e 94 c9 0b 	call	0x1792	; 0x1792 <_ZN4UTFT8setColorEhhh>
		display.fillRect(319, this->y, 320 - this->upperHeight, this->y + 10);
    1014:	f6 01       	movw	r30, r12
    1016:	40 81       	ld	r20, Z
    1018:	51 81       	ldd	r21, Z+1	; 0x01
    101a:	8a 01       	movw	r16, r20
    101c:	06 5f       	subi	r16, 0xF6	; 246
    101e:	1f 4f       	sbci	r17, 0xFF	; 255
    1020:	84 81       	ldd	r24, Z+4	; 0x04
    1022:	95 81       	ldd	r25, Z+5	; 0x05
    1024:	20 e4       	ldi	r18, 0x40	; 64
    1026:	31 e0       	ldi	r19, 0x01	; 1
    1028:	28 1b       	sub	r18, r24
    102a:	39 0b       	sbc	r19, r25
    102c:	6f e3       	ldi	r22, 0x3F	; 63
    102e:	71 e0       	ldi	r23, 0x01	; 1
    1030:	8c e6       	ldi	r24, 0x6C	; 108
    1032:	92 e0       	ldi	r25, 0x02	; 2
    1034:	0e 94 33 0b 	call	0x1666	; 0x1666 <_ZN4UTFT8fillRectEiiii>
		display.fillRect(320 - this->upperHeight - 80, this->y, 0, this->y + 10);
    1038:	f6 01       	movw	r30, r12
    103a:	40 81       	ld	r20, Z
    103c:	51 81       	ldd	r21, Z+1	; 0x01
    103e:	8a 01       	movw	r16, r20
    1040:	06 5f       	subi	r16, 0xF6	; 246
    1042:	1f 4f       	sbci	r17, 0xFF	; 255
    1044:	84 81       	ldd	r24, Z+4	; 0x04
    1046:	95 81       	ldd	r25, Z+5	; 0x05
    1048:	60 ef       	ldi	r22, 0xF0	; 240
    104a:	70 e0       	ldi	r23, 0x00	; 0
    104c:	68 1b       	sub	r22, r24
    104e:	79 0b       	sbc	r23, r25
    1050:	20 e0       	ldi	r18, 0x00	; 0
    1052:	30 e0       	ldi	r19, 0x00	; 0
    1054:	8c e6       	ldi	r24, 0x6C	; 108
    1056:	92 e0       	ldi	r25, 0x02	; 2
    1058:	0e 94 33 0b 	call	0x1666	; 0x1666 <_ZN4UTFT8fillRectEiiii>
	/**
	 * Updates the y-coordinate of the pipe by subtracting the speed from it.
	 * If the y-coordinate becomes less than 0, the dontUse flag is set to 1.
	 */
	void update(){
		this->y = this->y - this->speed;
    105c:	f6 01       	movw	r30, r12
    105e:	80 81       	ld	r24, Z
    1060:	91 81       	ldd	r25, Z+1	; 0x01
    1062:	22 81       	ldd	r18, Z+2	; 0x02
    1064:	33 81       	ldd	r19, Z+3	; 0x03
    1066:	82 1b       	sub	r24, r18
    1068:	93 0b       	sbc	r25, r19
    106a:	91 83       	std	Z+1, r25	; 0x01
    106c:	80 83       	st	Z, r24
		if(this->y < 0) this->dontUse = 1;
    106e:	99 23       	and	r25, r25
    1070:	2c f4       	brge	.+10     	; 0x107c <main+0x172>
    1072:	f6 01       	movw	r30, r12
    1074:	81 e0       	ldi	r24, 0x01	; 1
    1076:	90 e0       	ldi	r25, 0x00	; 0
    1078:	97 83       	std	Z+7, r25	; 0x07
    107a:	86 83       	std	Z+6, r24	; 0x06
	// The while loop is the main game loop that updates and renders the game elements
	while (1)
	{
		
		// The loop iterates through an array of pipes and draws and updates each pipe if it has not been marked as unused
		for (int i = 0; i < pipeCount; i++){
    107c:	ff ef       	ldi	r31, 0xFF	; 255
    107e:	ef 1a       	sub	r14, r31
    1080:	ff 0a       	sbc	r15, r31
    1082:	96 cf       	rjmp	.-212    	; 0xfb0 <main+0xa6>
				pipes[i].update();
			}
		}
		
		// The pixelCounter variable is used to keep track of how many pixels the pipes have moved and add new pipes when it reaches a certain value
		pixelCounter++;
    1084:	20 91 76 00 	lds	r18, 0x0076	; 0x800076 <pixelCounter>
    1088:	30 91 77 00 	lds	r19, 0x0077	; 0x800077 <pixelCounter+0x1>
    108c:	2f 5f       	subi	r18, 0xFF	; 255
    108e:	3f 4f       	sbci	r19, 0xFF	; 255
    1090:	30 93 77 00 	sts	0x0077, r19	; 0x800077 <pixelCounter+0x1>
    1094:	20 93 76 00 	sts	0x0076, r18	; 0x800076 <pixelCounter>
		
		if(pixelCounter == 80){
    1098:	20 35       	cpi	r18, 0x50	; 80
    109a:	31 05       	cpc	r19, r1
    109c:	89 f4       	brne	.+34     	; 0x10c0 <main+0x1b6>
			pipeCount++;
    109e:	01 96       	adiw	r24, 0x01	; 1
    10a0:	90 93 65 00 	sts	0x0065, r25	; 0x800065 <pipeCount+0x1>
    10a4:	80 93 64 00 	sts	0x0064, r24	; 0x800064 <pipeCount>
			if(pipeCount > 50) pipeCount = 50;
    10a8:	c3 97       	sbiw	r24, 0x33	; 51
    10aa:	34 f0       	brlt	.+12     	; 0x10b8 <main+0x1ae>
    10ac:	82 e3       	ldi	r24, 0x32	; 50
    10ae:	90 e0       	ldi	r25, 0x00	; 0
    10b0:	90 93 65 00 	sts	0x0065, r25	; 0x800065 <pipeCount+0x1>
    10b4:	80 93 64 00 	sts	0x0064, r24	; 0x800064 <pipeCount>
			pixelCounter = 0;
    10b8:	10 92 77 00 	sts	0x0077, r1	; 0x800077 <pixelCounter+0x1>
    10bc:	10 92 76 00 	sts	0x0076, r1	; 0x800076 <pixelCounter>
     * Draws the bird using its x and y coordinates
     * Uses the display object's setColor and fillCircle functions to draw a white circle at the bird's position.
     */
	void drawBird()
	{
		display.setColor(WHITE);
    10c0:	2f ef       	ldi	r18, 0xFF	; 255
    10c2:	4f ef       	ldi	r20, 0xFF	; 255
    10c4:	6f ef       	ldi	r22, 0xFF	; 255
    10c6:	8c e6       	ldi	r24, 0x6C	; 108
    10c8:	92 e0       	ldi	r25, 0x02	; 2
    10ca:	0e 94 c9 0b 	call	0x1792	; 0x1792 <_ZN4UTFT8setColorEhhh>
		display.fillCircle(x, y, 10);
    10ce:	2a e0       	ldi	r18, 0x0A	; 10
    10d0:	30 e0       	ldi	r19, 0x00	; 0
    10d2:	a5 01       	movw	r20, r10
    10d4:	b4 01       	movw	r22, r8
    10d6:	8c e6       	ldi	r24, 0x6C	; 108
    10d8:	92 e0       	ldi	r25, 0x02	; 2
    10da:	0e 94 5a 0c 	call	0x18b4	; 0x18b4 <_ZN4UTFT10fillCircleEiii>
     * The function also implements collision detection, checking if the bird has collided with a pipe.
     * If there is a collision, the game is ended and the score is displayed.
     */
	void updateBird()
	{
		if((PINB & (1 << PB0)) == 0)
    10de:	b0 99       	sbic	0x16, 0	; 22
    10e0:	16 c0       	rjmp	.+44     	; 0x110e <main+0x204>
		{
			x += 10;
    10e2:	c4 01       	movw	r24, r8
    10e4:	0a 96       	adiw	r24, 0x0a	; 10
    10e6:	4c 01       	movw	r8, r24
	#else
		//round up by default
		__ticks_dc = (uint32_t)(ceil(fabs(__tmp)));
	#endif

	__builtin_avr_delay_cycles(__ticks_dc);
    10e8:	ef ef       	ldi	r30, 0xFF	; 255
    10ea:	f3 e2       	ldi	r31, 0x23	; 35
    10ec:	31 97       	sbiw	r30, 0x01	; 1
    10ee:	f1 f7       	brne	.-4      	; 0x10ec <main+0x1e2>
    10f0:	00 c0       	rjmp	.+0      	; 0x10f2 <main+0x1e8>
    10f2:	00 00       	nop
			_delay_ms(5);
			if(x + 10 > 315){
    10f4:	0a 96       	adiw	r24, 0x0a	; 10
    10f6:	8c 33       	cpi	r24, 0x3C	; 60
    10f8:	91 40       	sbci	r25, 0x01	; 1
    10fa:	ec f0       	brlt	.+58     	; 0x1136 <main+0x22c>
				x = 310;
    10fc:	0f 2e       	mov	r0, r31
    10fe:	f6 e3       	ldi	r31, 0x36	; 54
    1100:	8f 2e       	mov	r8, r31
    1102:	99 24       	eor	r9, r9
    1104:	93 94       	inc	r9
    1106:	f0 2d       	mov	r31, r0
			}
					
		}

		//Collision detection
		for (int i = 0; i < pipeCount; i++){
    1108:	80 e0       	ldi	r24, 0x00	; 0
    110a:	90 e0       	ldi	r25, 0x00	; 0
    110c:	19 c0       	rjmp	.+50     	; 0x1140 <main+0x236>
				x = 310;
			}
		}
		else
		{
			x -= 4;
    110e:	c4 01       	movw	r24, r8
    1110:	04 97       	sbiw	r24, 0x04	; 4
    1112:	4c 01       	movw	r8, r24
    1114:	ef ef       	ldi	r30, 0xFF	; 255
    1116:	f3 e2       	ldi	r31, 0x23	; 35
    1118:	31 97       	sbiw	r30, 0x01	; 1
    111a:	f1 f7       	brne	.-4      	; 0x1118 <main+0x20e>
    111c:	00 c0       	rjmp	.+0      	; 0x111e <main+0x214>
    111e:	00 00       	nop
			_delay_ms(5);
			if(x - 10 < 5){
    1120:	0a 97       	sbiw	r24, 0x0a	; 10
    1122:	05 97       	sbiw	r24, 0x05	; 5
    1124:	5c f4       	brge	.+22     	; 0x113c <main+0x232>
				x = 5;
    1126:	0f 2e       	mov	r0, r31
    1128:	f5 e0       	ldi	r31, 0x05	; 5
    112a:	8f 2e       	mov	r8, r31
    112c:	91 2c       	mov	r9, r1
    112e:	f0 2d       	mov	r31, r0
			}
					
		}

		//Collision detection
		for (int i = 0; i < pipeCount; i++){
    1130:	80 e0       	ldi	r24, 0x00	; 0
    1132:	90 e0       	ldi	r25, 0x00	; 0
    1134:	05 c0       	rjmp	.+10     	; 0x1140 <main+0x236>
    1136:	80 e0       	ldi	r24, 0x00	; 0
    1138:	90 e0       	ldi	r25, 0x00	; 0
    113a:	02 c0       	rjmp	.+4      	; 0x1140 <main+0x236>
    113c:	80 e0       	ldi	r24, 0x00	; 0
    113e:	90 e0       	ldi	r25, 0x00	; 0
    1140:	40 91 64 00 	lds	r20, 0x0064	; 0x800064 <pipeCount>
    1144:	50 91 65 00 	lds	r21, 0x0065	; 0x800065 <pipeCount+0x1>
    1148:	84 17       	cp	r24, r20
    114a:	95 07       	cpc	r25, r21
    114c:	0c f0       	brlt	.+2      	; 0x1150 <main+0x246>
    114e:	cc c0       	rjmp	.+408    	; 0x12e8 <main+0x3de>
			if(pipes[i].dontUse == 0){
    1150:	9c 01       	movw	r18, r24
    1152:	22 0f       	add	r18, r18
    1154:	33 1f       	adc	r19, r19
    1156:	22 0f       	add	r18, r18
    1158:	33 1f       	adc	r19, r19
    115a:	22 0f       	add	r18, r18
    115c:	33 1f       	adc	r19, r19
    115e:	fc 01       	movw	r30, r24
    1160:	ee 0f       	add	r30, r30
    1162:	ff 1f       	adc	r31, r31
    1164:	e2 0f       	add	r30, r18
    1166:	f3 1f       	adc	r31, r19
    1168:	e8 58       	subi	r30, 0x88	; 136
    116a:	ff 4f       	sbci	r31, 0xFF	; 255
    116c:	26 81       	ldd	r18, Z+6	; 0x06
    116e:	37 81       	ldd	r19, Z+7	; 0x07
    1170:	23 2b       	or	r18, r19
    1172:	09 f0       	breq	.+2      	; 0x1176 <main+0x26c>
    1174:	b7 c0       	rjmp	.+366    	; 0x12e4 <main+0x3da>
				if((320 - pipes[i].upperHeight < x + 10 || 320 - pipes[i].upperHeight - 80 > x - 10) && pipes[i].y < y + 10 && pipes[i].y + 10 > y - 10){
    1176:	9c 01       	movw	r18, r24
    1178:	22 0f       	add	r18, r18
    117a:	33 1f       	adc	r19, r19
    117c:	22 0f       	add	r18, r18
    117e:	33 1f       	adc	r19, r19
    1180:	22 0f       	add	r18, r18
    1182:	33 1f       	adc	r19, r19
    1184:	fc 01       	movw	r30, r24
    1186:	ee 0f       	add	r30, r30
    1188:	ff 1f       	adc	r31, r31
    118a:	e2 0f       	add	r30, r18
    118c:	f3 1f       	adc	r31, r19
    118e:	e8 58       	subi	r30, 0x88	; 136
    1190:	ff 4f       	sbci	r31, 0xFF	; 255
    1192:	64 81       	ldd	r22, Z+4	; 0x04
    1194:	75 81       	ldd	r23, Z+5	; 0x05
    1196:	20 e4       	ldi	r18, 0x40	; 64
    1198:	31 e0       	ldi	r19, 0x01	; 1
    119a:	26 1b       	sub	r18, r22
    119c:	37 0b       	sbc	r19, r23
    119e:	f4 01       	movw	r30, r8
    11a0:	3a 96       	adiw	r30, 0x0a	; 10
    11a2:	2e 17       	cp	r18, r30
    11a4:	3f 07       	cpc	r19, r31
    11a6:	5c f0       	brlt	.+22     	; 0x11be <main+0x2b4>
    11a8:	20 ef       	ldi	r18, 0xF0	; 240
    11aa:	30 e0       	ldi	r19, 0x00	; 0
    11ac:	26 1b       	sub	r18, r22
    11ae:	37 0b       	sbc	r19, r23
    11b0:	b4 01       	movw	r22, r8
    11b2:	6a 50       	subi	r22, 0x0A	; 10
    11b4:	71 09       	sbc	r23, r1
    11b6:	62 17       	cp	r22, r18
    11b8:	73 07       	cpc	r23, r19
    11ba:	0c f0       	brlt	.+2      	; 0x11be <main+0x2b4>
    11bc:	93 c0       	rjmp	.+294    	; 0x12e4 <main+0x3da>
    11be:	9c 01       	movw	r18, r24
    11c0:	22 0f       	add	r18, r18
    11c2:	33 1f       	adc	r19, r19
    11c4:	22 0f       	add	r18, r18
    11c6:	33 1f       	adc	r19, r19
    11c8:	22 0f       	add	r18, r18
    11ca:	33 1f       	adc	r19, r19
    11cc:	fc 01       	movw	r30, r24
    11ce:	ee 0f       	add	r30, r30
    11d0:	ff 1f       	adc	r31, r31
    11d2:	e2 0f       	add	r30, r18
    11d4:	f3 1f       	adc	r31, r19
    11d6:	e8 58       	subi	r30, 0x88	; 136
    11d8:	ff 4f       	sbci	r31, 0xFF	; 255
    11da:	20 81       	ld	r18, Z
    11dc:	31 81       	ldd	r19, Z+1	; 0x01
    11de:	b5 01       	movw	r22, r10
    11e0:	66 5f       	subi	r22, 0xF6	; 246
    11e2:	7f 4f       	sbci	r23, 0xFF	; 255
    11e4:	26 17       	cp	r18, r22
    11e6:	37 07       	cpc	r19, r23
    11e8:	0c f0       	brlt	.+2      	; 0x11ec <main+0x2e2>
    11ea:	7c c0       	rjmp	.+248    	; 0x12e4 <main+0x3da>
    11ec:	26 5f       	subi	r18, 0xF6	; 246
    11ee:	3f 4f       	sbci	r19, 0xFF	; 255
    11f0:	64 51       	subi	r22, 0x14	; 20
    11f2:	71 09       	sbc	r23, r1
    11f4:	62 17       	cp	r22, r18
    11f6:	73 07       	cpc	r23, r19
    11f8:	0c f0       	brlt	.+2      	; 0x11fc <main+0x2f2>
    11fa:	74 c0       	rjmp	.+232    	; 0x12e4 <main+0x3da>
    11fc:	20 e0       	ldi	r18, 0x00	; 0
    11fe:	30 e0       	ldi	r19, 0x00	; 0
					
					 // Update the score
					for (int i = 0; i < pipeCount; i++){
    1200:	24 17       	cp	r18, r20
    1202:	35 07       	cpc	r19, r21
    1204:	f4 f4       	brge	.+60     	; 0x1242 <main+0x338>
						if(pipes[i].passed == 1){
    1206:	c9 01       	movw	r24, r18
    1208:	88 0f       	add	r24, r24
    120a:	99 1f       	adc	r25, r25
    120c:	88 0f       	add	r24, r24
    120e:	99 1f       	adc	r25, r25
    1210:	88 0f       	add	r24, r24
    1212:	99 1f       	adc	r25, r25
    1214:	f9 01       	movw	r30, r18
    1216:	ee 0f       	add	r30, r30
    1218:	ff 1f       	adc	r31, r31
    121a:	e8 0f       	add	r30, r24
    121c:	f9 1f       	adc	r31, r25
    121e:	e8 58       	subi	r30, 0x88	; 136
    1220:	ff 4f       	sbci	r31, 0xFF	; 255
    1222:	80 85       	ldd	r24, Z+8	; 0x08
    1224:	91 85       	ldd	r25, Z+9	; 0x09
    1226:	01 97       	sbiw	r24, 0x01	; 1
    1228:	49 f4       	brne	.+18     	; 0x123c <main+0x332>
							score++;
    122a:	80 91 74 00 	lds	r24, 0x0074	; 0x800074 <__data_end>
    122e:	90 91 75 00 	lds	r25, 0x0075	; 0x800075 <__data_end+0x1>
    1232:	01 96       	adiw	r24, 0x01	; 1
    1234:	90 93 75 00 	sts	0x0075, r25	; 0x800075 <__data_end+0x1>
    1238:	80 93 74 00 	sts	0x0074, r24	; 0x800074 <__data_end>
		for (int i = 0; i < pipeCount; i++){
			if(pipes[i].dontUse == 0){
				if((320 - pipes[i].upperHeight < x + 10 || 320 - pipes[i].upperHeight - 80 > x - 10) && pipes[i].y < y + 10 && pipes[i].y + 10 > y - 10){
					
					 // Update the score
					for (int i = 0; i < pipeCount; i++){
    123c:	2f 5f       	subi	r18, 0xFF	; 255
    123e:	3f 4f       	sbci	r19, 0xFF	; 255
    1240:	df cf       	rjmp	.-66     	; 0x1200 <main+0x2f6>
						}
					}
					
					 // Display the score and "game over" message
					char scoreString[10];
					sprintf(scoreString, "%d", score);
    1242:	80 91 75 00 	lds	r24, 0x0075	; 0x800075 <__data_end+0x1>
    1246:	8f 93       	push	r24
    1248:	80 91 74 00 	lds	r24, 0x0074	; 0x800074 <__data_end>
    124c:	8f 93       	push	r24
    124e:	86 e6       	ldi	r24, 0x66	; 102
    1250:	90 e0       	ldi	r25, 0x00	; 0
    1252:	9f 93       	push	r25
    1254:	8f 93       	push	r24
    1256:	7e 01       	movw	r14, r28
    1258:	fb e0       	ldi	r31, 0x0B	; 11
    125a:	ef 0e       	add	r14, r31
    125c:	f1 1c       	adc	r15, r1
    125e:	ff 92       	push	r15
    1260:	ef 92       	push	r14
    1262:	0e 94 2f 13 	call	0x265e	; 0x265e <sprintf>
					display.clrScr();
    1266:	8c e6       	ldi	r24, 0x6C	; 108
    1268:	92 e0       	ldi	r25, 0x02	; 2
    126a:	0e 94 93 0b 	call	0x1726	; 0x1726 <_ZN4UTFT6clrScrEv>
					display.InitLCD(PORTRAIT);
    126e:	60 e0       	ldi	r22, 0x00	; 0
    1270:	8c e6       	ldi	r24, 0x6C	; 108
    1272:	92 e0       	ldi	r25, 0x02	; 2
    1274:	0e 94 11 0c 	call	0x1822	; 0x1822 <_ZN4UTFT7InitLCDEh>
					display.setColor(WHITE);
    1278:	2f ef       	ldi	r18, 0xFF	; 255
    127a:	4f ef       	ldi	r20, 0xFF	; 255
    127c:	6f ef       	ldi	r22, 0xFF	; 255
    127e:	8c e6       	ldi	r24, 0x6C	; 108
    1280:	92 e0       	ldi	r25, 0x02	; 2
    1282:	0e 94 c9 0b 	call	0x1792	; 0x1792 <_ZN4UTFT8setColorEhhh>
					display.setFont(BigFont);
    1286:	62 e7       	ldi	r22, 0x72	; 114
    1288:	70 e0       	ldi	r23, 0x00	; 0
    128a:	8c e6       	ldi	r24, 0x6C	; 108
    128c:	92 e0       	ldi	r25, 0x02	; 2
    128e:	0e 94 03 10 	call	0x2006	; 0x2006 <_ZN4UTFT7setFontEPKh>
					display.print(scoreString, CENTER, 150);
    1292:	00 e0       	ldi	r16, 0x00	; 0
    1294:	10 e0       	ldi	r17, 0x00	; 0
    1296:	26 e9       	ldi	r18, 0x96	; 150
    1298:	30 e0       	ldi	r19, 0x00	; 0
    129a:	4e e0       	ldi	r20, 0x0E	; 14
    129c:	57 e2       	ldi	r21, 0x27	; 39
    129e:	b7 01       	movw	r22, r14
    12a0:	8c e6       	ldi	r24, 0x6C	; 108
    12a2:	92 e0       	ldi	r25, 0x02	; 2
    12a4:	0e 94 28 0f 	call	0x1e50	; 0x1e50 <_ZN4UTFT5printEPKciii>
					display.setColor(RED);
    12a8:	20 e0       	ldi	r18, 0x00	; 0
    12aa:	40 e0       	ldi	r20, 0x00	; 0
    12ac:	6f ef       	ldi	r22, 0xFF	; 255
    12ae:	8c e6       	ldi	r24, 0x6C	; 108
    12b0:	92 e0       	ldi	r25, 0x02	; 2
    12b2:	0e 94 c9 0b 	call	0x1792	; 0x1792 <_ZN4UTFT8setColorEhhh>
					display.setFont(BigFont);
    12b6:	62 e7       	ldi	r22, 0x72	; 114
    12b8:	70 e0       	ldi	r23, 0x00	; 0
    12ba:	8c e6       	ldi	r24, 0x6C	; 108
    12bc:	92 e0       	ldi	r25, 0x02	; 2
    12be:	0e 94 03 10 	call	0x2006	; 0x2006 <_ZN4UTFT7setFontEPKh>
					display.print("GAME OVER", CENTER, CENTER);
    12c2:	2e e0       	ldi	r18, 0x0E	; 14
    12c4:	37 e2       	ldi	r19, 0x27	; 39
    12c6:	4e e0       	ldi	r20, 0x0E	; 14
    12c8:	57 e2       	ldi	r21, 0x27	; 39
    12ca:	69 e6       	ldi	r22, 0x69	; 105
    12cc:	70 e0       	ldi	r23, 0x00	; 0
    12ce:	8c e6       	ldi	r24, 0x6C	; 108
    12d0:	92 e0       	ldi	r25, 0x02	; 2
    12d2:	0e 94 28 0f 	call	0x1e50	; 0x1e50 <_ZN4UTFT5printEPKciii>
    12d6:	0f 90       	pop	r0
    12d8:	0f 90       	pop	r0
    12da:	0f 90       	pop	r0
    12dc:	0f 90       	pop	r0
    12de:	0f 90       	pop	r0
    12e0:	0f 90       	pop	r0
    12e2:	ff cf       	rjmp	.-2      	; 0x12e2 <main+0x3d8>
			}
					
		}

		//Collision detection
		for (int i = 0; i < pipeCount; i++){
    12e4:	01 96       	adiw	r24, 0x01	; 1
    12e6:	2c cf       	rjmp	.-424    	; 0x1140 <main+0x236>
	/**
     * Checks if the bird has passed a pipe and updates the score if necessary.
     * Goes through the array of pipes and marks the ones that have been passed by the bird.
     */
	void checkScore(){
		for (int i = 0; i < pipeCount; i++){
    12e8:	80 e0       	ldi	r24, 0x00	; 0
    12ea:	90 e0       	ldi	r25, 0x00	; 0
    12ec:	20 91 64 00 	lds	r18, 0x0064	; 0x800064 <pipeCount>
    12f0:	30 91 65 00 	lds	r19, 0x0065	; 0x800065 <pipeCount+0x1>
    12f4:	82 17       	cp	r24, r18
    12f6:	93 07       	cpc	r25, r19
    12f8:	f4 f5       	brge	.+124    	; 0x1376 <main+0x46c>
			if(pipes[i].dontUse == 0){
    12fa:	9c 01       	movw	r18, r24
    12fc:	22 0f       	add	r18, r18
    12fe:	33 1f       	adc	r19, r19
    1300:	22 0f       	add	r18, r18
    1302:	33 1f       	adc	r19, r19
    1304:	22 0f       	add	r18, r18
    1306:	33 1f       	adc	r19, r19
    1308:	fc 01       	movw	r30, r24
    130a:	ee 0f       	add	r30, r30
    130c:	ff 1f       	adc	r31, r31
    130e:	e2 0f       	add	r30, r18
    1310:	f3 1f       	adc	r31, r19
    1312:	e8 58       	subi	r30, 0x88	; 136
    1314:	ff 4f       	sbci	r31, 0xFF	; 255
    1316:	26 81       	ldd	r18, Z+6	; 0x06
    1318:	37 81       	ldd	r19, Z+7	; 0x07
    131a:	23 2b       	or	r18, r19
    131c:	51 f5       	brne	.+84     	; 0x1372 <main+0x468>
				
				// If statement that checks if pipe has been passed
				if(pipes[i].y + 10 < this->y - 10){
    131e:	9c 01       	movw	r18, r24
    1320:	22 0f       	add	r18, r18
    1322:	33 1f       	adc	r19, r19
    1324:	22 0f       	add	r18, r18
    1326:	33 1f       	adc	r19, r19
    1328:	22 0f       	add	r18, r18
    132a:	33 1f       	adc	r19, r19
    132c:	fc 01       	movw	r30, r24
    132e:	ee 0f       	add	r30, r30
    1330:	ff 1f       	adc	r31, r31
    1332:	e2 0f       	add	r30, r18
    1334:	f3 1f       	adc	r31, r19
    1336:	e8 58       	subi	r30, 0x88	; 136
    1338:	ff 4f       	sbci	r31, 0xFF	; 255
    133a:	20 81       	ld	r18, Z
    133c:	31 81       	ldd	r19, Z+1	; 0x01
    133e:	26 5f       	subi	r18, 0xF6	; 246
    1340:	3f 4f       	sbci	r19, 0xFF	; 255
    1342:	a5 01       	movw	r20, r10
    1344:	4a 50       	subi	r20, 0x0A	; 10
    1346:	51 09       	sbc	r21, r1
    1348:	24 17       	cp	r18, r20
    134a:	35 07       	cpc	r19, r21
    134c:	94 f4       	brge	.+36     	; 0x1372 <main+0x468>
					pipes[i].passed = 1;
    134e:	9c 01       	movw	r18, r24
    1350:	22 0f       	add	r18, r18
    1352:	33 1f       	adc	r19, r19
    1354:	22 0f       	add	r18, r18
    1356:	33 1f       	adc	r19, r19
    1358:	22 0f       	add	r18, r18
    135a:	33 1f       	adc	r19, r19
    135c:	fc 01       	movw	r30, r24
    135e:	ee 0f       	add	r30, r30
    1360:	ff 1f       	adc	r31, r31
    1362:	e2 0f       	add	r30, r18
    1364:	f3 1f       	adc	r31, r19
    1366:	e8 58       	subi	r30, 0x88	; 136
    1368:	ff 4f       	sbci	r31, 0xFF	; 255
    136a:	21 e0       	ldi	r18, 0x01	; 1
    136c:	30 e0       	ldi	r19, 0x00	; 0
    136e:	31 87       	std	Z+9, r19	; 0x09
    1370:	20 87       	std	Z+8, r18	; 0x08
	/**
     * Checks if the bird has passed a pipe and updates the score if necessary.
     * Goes through the array of pipes and marks the ones that have been passed by the bird.
     */
	void checkScore(){
		for (int i = 0; i < pipeCount; i++){
    1372:	01 96       	adiw	r24, 0x01	; 1
    1374:	bb cf       	rjmp	.-138    	; 0x12ec <main+0x3e2>
    1376:	86 e6       	ldi	r24, 0x66	; 102
    1378:	9e e0       	ldi	r25, 0x0E	; 14
    137a:	01 97       	sbiw	r24, 0x01	; 1
    137c:	f1 f7       	brne	.-4      	; 0x137a <main+0x470>
    137e:	00 00       	nop
		
		//The delay function is called to slow down the loop to control the frame rate of the game
		_delay_ms(2);
		
		// The display's clear screen function is called at the end of each iteration to clear the screen for the next frame
		display.clrScr();
    1380:	8c e6       	ldi	r24, 0x6C	; 108
    1382:	92 e0       	ldi	r25, 0x02	; 2
    1384:	0e 94 93 0b 	call	0x1726	; 0x1726 <_ZN4UTFT6clrScrEv>
	for(int i = 0; i < 50; i++) {
		pipes[i] = Pipe();
	}

	// The while loop is the main game loop that updates and renders the game elements
	while (1)
    1388:	11 ce       	rjmp	.-990    	; 0xfac <main+0xa2>

0000138a <_GLOBAL__sub_I_display>:
		_delay_ms(2);
		
		// The display's clear screen function is called at the end of each iteration to clear the screen for the next frame
		display.clrScr();
	}
    138a:	6f ef       	ldi	r22, 0xFF	; 255
    138c:	7f ef       	ldi	r23, 0xFF	; 255
    138e:	81 e0       	ldi	r24, 0x01	; 1
    1390:	90 e0       	ldi	r25, 0x00	; 0
    1392:	0e 94 53 07 	call	0xea6	; 0xea6 <_Z41__static_initialization_and_destruction_0ii>
    1396:	08 95       	ret

00001398 <SSD1289_init>:



void SSD1289_init()
{	
	DATA_PORT_LOW_DDR = 0xff;
    1398:	8f ef       	ldi	r24, 0xFF	; 255
    139a:	8a bb       	out	0x1a, r24	; 26
	DATA_PORT_HIGH_DDR = 0xff;
    139c:	81 bb       	out	0x11, r24	; 17
			
	RS_PORT_DDR |= _BV( RS_PIN);
    139e:	84 b3       	in	r24, 0x14	; 20
    13a0:	80 64       	ori	r24, 0x40	; 64
    13a2:	84 bb       	out	0x14, r24	; 20
				
	WR_PORT_DDR |= _BV(WR_PIN);
    13a4:	84 b3       	in	r24, 0x14	; 20
    13a6:	80 68       	ori	r24, 0x80	; 128
    13a8:	84 bb       	out	0x14, r24	; 20

	CS_PORT_DDR |= _BV(CS_PIN);
    13aa:	84 b3       	in	r24, 0x14	; 20
    13ac:	82 60       	ori	r24, 0x02	; 2
    13ae:	84 bb       	out	0x14, r24	; 20
		
	RD_PORT_DDR |= _BV(RD_PIN);
    13b0:	87 b3       	in	r24, 0x17	; 23
    13b2:	80 62       	ori	r24, 0x20	; 32
    13b4:	87 bb       	out	0x17, r24	; 23
	RD_PORT |= _BV(RD_PIN);
    13b6:	88 b3       	in	r24, 0x18	; 24
    13b8:	80 62       	ori	r24, 0x20	; 32
    13ba:	88 bb       	out	0x18, r24	; 24
		
	RESET_PORT_DDR |= _BV(RESET_PIN);
    13bc:	84 b3       	in	r24, 0x14	; 20
    13be:	81 60       	ori	r24, 0x01	; 1
    13c0:	84 bb       	out	0x14, r24	; 20
		
	BACK_LIGHT_PORT |= _BV(BACK_LIGHT_PIN);
    13c2:	85 b3       	in	r24, 0x15	; 21
    13c4:	82 60       	ori	r24, 0x02	; 2
    13c6:	85 bb       	out	0x15, r24	; 21
	
	BACK_LIGHT_DDR |= _BV(BACK_LIGHT_PIN);			
    13c8:	84 b3       	in	r24, 0x14	; 20
    13ca:	82 60       	ori	r24, 0x02	; 2
    13cc:	84 bb       	out	0x14, r24	; 20
	
	sbi(RESET_PORT, RESET_PIN);
    13ce:	85 b3       	in	r24, 0x15	; 21
    13d0:	81 60       	ori	r24, 0x01	; 1
    13d2:	85 bb       	out	0x15, r24	; 21
    13d4:	8f ef       	ldi	r24, 0xFF	; 255
    13d6:	93 e2       	ldi	r25, 0x23	; 35
    13d8:	01 97       	sbiw	r24, 0x01	; 1
    13da:	f1 f7       	brne	.-4      	; 0x13d8 <SSD1289_init+0x40>
    13dc:	00 c0       	rjmp	.+0      	; 0x13de <SSD1289_init+0x46>
    13de:	00 00       	nop
	_delay_ms(5);
	cbi(RESET_PORT, RESET_PIN);
    13e0:	85 b3       	in	r24, 0x15	; 21
    13e2:	8e 7f       	andi	r24, 0xFE	; 254
    13e4:	85 bb       	out	0x15, r24	; 21
    13e6:	8f ef       	ldi	r24, 0xFF	; 255
    13e8:	9b e6       	ldi	r25, 0x6B	; 107
    13ea:	01 97       	sbiw	r24, 0x01	; 1
    13ec:	f1 f7       	brne	.-4      	; 0x13ea <SSD1289_init+0x52>
    13ee:	00 c0       	rjmp	.+0      	; 0x13f0 <SSD1289_init+0x58>
    13f0:	00 00       	nop
	_delay_ms(15);
	sbi(RESET_PORT, RESET_PIN);
    13f2:	85 b3       	in	r24, 0x15	; 21
    13f4:	81 60       	ori	r24, 0x01	; 1
    13f6:	85 bb       	out	0x15, r24	; 21
    13f8:	8f ef       	ldi	r24, 0xFF	; 255
    13fa:	9b e6       	ldi	r25, 0x6B	; 107
    13fc:	01 97       	sbiw	r24, 0x01	; 1
    13fe:	f1 f7       	brne	.-4      	; 0x13fc <SSD1289_init+0x64>
    1400:	00 c0       	rjmp	.+0      	; 0x1402 <SSD1289_init+0x6a>
    1402:	00 00       	nop
	_delay_ms(15);

	cbi(CS_PORT, CS_PIN);
    1404:	85 b3       	in	r24, 0x15	; 21
    1406:	8d 7f       	andi	r24, 0xFD	; 253
    1408:	85 bb       	out	0x15, r24	; 21

	LCD_Write_COM_DATA(0x00,0x0001);
    140a:	61 e0       	ldi	r22, 0x01	; 1
    140c:	70 e0       	ldi	r23, 0x00	; 0
    140e:	80 e0       	ldi	r24, 0x00	; 0
    1410:	0e 94 42 07 	call	0xe84	; 0xe84 <LCD_Write_COM_DATA>
	LCD_Write_COM_DATA(0x03,0xA8A4);
    1414:	64 ea       	ldi	r22, 0xA4	; 164
    1416:	78 ea       	ldi	r23, 0xA8	; 168
    1418:	83 e0       	ldi	r24, 0x03	; 3
    141a:	0e 94 42 07 	call	0xe84	; 0xe84 <LCD_Write_COM_DATA>
	LCD_Write_COM_DATA(0x0C,0x0000);
    141e:	60 e0       	ldi	r22, 0x00	; 0
    1420:	70 e0       	ldi	r23, 0x00	; 0
    1422:	8c e0       	ldi	r24, 0x0C	; 12
    1424:	0e 94 42 07 	call	0xe84	; 0xe84 <LCD_Write_COM_DATA>
	LCD_Write_COM_DATA(0x0D,0x080C);
    1428:	6c e0       	ldi	r22, 0x0C	; 12
    142a:	78 e0       	ldi	r23, 0x08	; 8
    142c:	8d e0       	ldi	r24, 0x0D	; 13
    142e:	0e 94 42 07 	call	0xe84	; 0xe84 <LCD_Write_COM_DATA>
	LCD_Write_COM_DATA(0x0E,0x2B00);
    1432:	60 e0       	ldi	r22, 0x00	; 0
    1434:	7b e2       	ldi	r23, 0x2B	; 43
    1436:	8e e0       	ldi	r24, 0x0E	; 14
    1438:	0e 94 42 07 	call	0xe84	; 0xe84 <LCD_Write_COM_DATA>
	LCD_Write_COM_DATA(0x1E,0x00B7);
    143c:	67 eb       	ldi	r22, 0xB7	; 183
    143e:	70 e0       	ldi	r23, 0x00	; 0
    1440:	8e e1       	ldi	r24, 0x1E	; 30
    1442:	0e 94 42 07 	call	0xe84	; 0xe84 <LCD_Write_COM_DATA>
	LCD_Write_COM_DATA(0x01,0x2B3F);
    1446:	6f e3       	ldi	r22, 0x3F	; 63
    1448:	7b e2       	ldi	r23, 0x2B	; 43
    144a:	81 e0       	ldi	r24, 0x01	; 1
    144c:	0e 94 42 07 	call	0xe84	; 0xe84 <LCD_Write_COM_DATA>
	LCD_Write_COM_DATA(0x02,0x0600);
    1450:	60 e0       	ldi	r22, 0x00	; 0
    1452:	76 e0       	ldi	r23, 0x06	; 6
    1454:	82 e0       	ldi	r24, 0x02	; 2
    1456:	0e 94 42 07 	call	0xe84	; 0xe84 <LCD_Write_COM_DATA>
	LCD_Write_COM_DATA(0x10,0x0000);
    145a:	60 e0       	ldi	r22, 0x00	; 0
    145c:	70 e0       	ldi	r23, 0x00	; 0
    145e:	80 e1       	ldi	r24, 0x10	; 16
    1460:	0e 94 42 07 	call	0xe84	; 0xe84 <LCD_Write_COM_DATA>
	LCD_Write_COM_DATA(0x11,0x6070);
    1464:	60 e7       	ldi	r22, 0x70	; 112
    1466:	70 e6       	ldi	r23, 0x60	; 96
    1468:	81 e1       	ldi	r24, 0x11	; 17
    146a:	0e 94 42 07 	call	0xe84	; 0xe84 <LCD_Write_COM_DATA>
	LCD_Write_COM_DATA(0x05,0x0000);
    146e:	60 e0       	ldi	r22, 0x00	; 0
    1470:	70 e0       	ldi	r23, 0x00	; 0
    1472:	85 e0       	ldi	r24, 0x05	; 5
    1474:	0e 94 42 07 	call	0xe84	; 0xe84 <LCD_Write_COM_DATA>
	LCD_Write_COM_DATA(0x06,0x0000);
    1478:	60 e0       	ldi	r22, 0x00	; 0
    147a:	70 e0       	ldi	r23, 0x00	; 0
    147c:	86 e0       	ldi	r24, 0x06	; 6
    147e:	0e 94 42 07 	call	0xe84	; 0xe84 <LCD_Write_COM_DATA>
	LCD_Write_COM_DATA(0x16,0xEF1C);
    1482:	6c e1       	ldi	r22, 0x1C	; 28
    1484:	7f ee       	ldi	r23, 0xEF	; 239
    1486:	86 e1       	ldi	r24, 0x16	; 22
    1488:	0e 94 42 07 	call	0xe84	; 0xe84 <LCD_Write_COM_DATA>
	LCD_Write_COM_DATA(0x17,0x0003);
    148c:	63 e0       	ldi	r22, 0x03	; 3
    148e:	70 e0       	ldi	r23, 0x00	; 0
    1490:	87 e1       	ldi	r24, 0x17	; 23
    1492:	0e 94 42 07 	call	0xe84	; 0xe84 <LCD_Write_COM_DATA>
	LCD_Write_COM_DATA(0x07,0x0233);
    1496:	63 e3       	ldi	r22, 0x33	; 51
    1498:	72 e0       	ldi	r23, 0x02	; 2
    149a:	87 e0       	ldi	r24, 0x07	; 7
    149c:	0e 94 42 07 	call	0xe84	; 0xe84 <LCD_Write_COM_DATA>
	LCD_Write_COM_DATA(0x0B,0x0000);
    14a0:	60 e0       	ldi	r22, 0x00	; 0
    14a2:	70 e0       	ldi	r23, 0x00	; 0
    14a4:	8b e0       	ldi	r24, 0x0B	; 11
    14a6:	0e 94 42 07 	call	0xe84	; 0xe84 <LCD_Write_COM_DATA>
	LCD_Write_COM_DATA(0x0F,0x0000);
    14aa:	60 e0       	ldi	r22, 0x00	; 0
    14ac:	70 e0       	ldi	r23, 0x00	; 0
    14ae:	8f e0       	ldi	r24, 0x0F	; 15
    14b0:	0e 94 42 07 	call	0xe84	; 0xe84 <LCD_Write_COM_DATA>
	LCD_Write_COM_DATA(0x41,0x0000);
    14b4:	60 e0       	ldi	r22, 0x00	; 0
    14b6:	70 e0       	ldi	r23, 0x00	; 0
    14b8:	81 e4       	ldi	r24, 0x41	; 65
    14ba:	0e 94 42 07 	call	0xe84	; 0xe84 <LCD_Write_COM_DATA>
	LCD_Write_COM_DATA(0x42,0x0000);
    14be:	60 e0       	ldi	r22, 0x00	; 0
    14c0:	70 e0       	ldi	r23, 0x00	; 0
    14c2:	82 e4       	ldi	r24, 0x42	; 66
    14c4:	0e 94 42 07 	call	0xe84	; 0xe84 <LCD_Write_COM_DATA>
	LCD_Write_COM_DATA(0x48,0x0000);
    14c8:	60 e0       	ldi	r22, 0x00	; 0
    14ca:	70 e0       	ldi	r23, 0x00	; 0
    14cc:	88 e4       	ldi	r24, 0x48	; 72
    14ce:	0e 94 42 07 	call	0xe84	; 0xe84 <LCD_Write_COM_DATA>
	LCD_Write_COM_DATA(0x49,0x013F);
    14d2:	6f e3       	ldi	r22, 0x3F	; 63
    14d4:	71 e0       	ldi	r23, 0x01	; 1
    14d6:	89 e4       	ldi	r24, 0x49	; 73
    14d8:	0e 94 42 07 	call	0xe84	; 0xe84 <LCD_Write_COM_DATA>
	LCD_Write_COM_DATA(0x4A,0x0000);
    14dc:	60 e0       	ldi	r22, 0x00	; 0
    14de:	70 e0       	ldi	r23, 0x00	; 0
    14e0:	8a e4       	ldi	r24, 0x4A	; 74
    14e2:	0e 94 42 07 	call	0xe84	; 0xe84 <LCD_Write_COM_DATA>
	LCD_Write_COM_DATA(0x4B,0x0000);
    14e6:	60 e0       	ldi	r22, 0x00	; 0
    14e8:	70 e0       	ldi	r23, 0x00	; 0
    14ea:	8b e4       	ldi	r24, 0x4B	; 75
    14ec:	0e 94 42 07 	call	0xe84	; 0xe84 <LCD_Write_COM_DATA>
	LCD_Write_COM_DATA(0x44,0xEF00);
    14f0:	60 e0       	ldi	r22, 0x00	; 0
    14f2:	7f ee       	ldi	r23, 0xEF	; 239
    14f4:	84 e4       	ldi	r24, 0x44	; 68
    14f6:	0e 94 42 07 	call	0xe84	; 0xe84 <LCD_Write_COM_DATA>
	LCD_Write_COM_DATA(0x45,0x0000);
    14fa:	60 e0       	ldi	r22, 0x00	; 0
    14fc:	70 e0       	ldi	r23, 0x00	; 0
    14fe:	85 e4       	ldi	r24, 0x45	; 69
    1500:	0e 94 42 07 	call	0xe84	; 0xe84 <LCD_Write_COM_DATA>
	LCD_Write_COM_DATA(0x46,0x013F);
    1504:	6f e3       	ldi	r22, 0x3F	; 63
    1506:	71 e0       	ldi	r23, 0x01	; 1
    1508:	86 e4       	ldi	r24, 0x46	; 70
    150a:	0e 94 42 07 	call	0xe84	; 0xe84 <LCD_Write_COM_DATA>
	LCD_Write_COM_DATA(0x30,0x0707);
    150e:	67 e0       	ldi	r22, 0x07	; 7
    1510:	77 e0       	ldi	r23, 0x07	; 7
    1512:	80 e3       	ldi	r24, 0x30	; 48
    1514:	0e 94 42 07 	call	0xe84	; 0xe84 <LCD_Write_COM_DATA>
	LCD_Write_COM_DATA(0x31,0x0204);
    1518:	64 e0       	ldi	r22, 0x04	; 4
    151a:	72 e0       	ldi	r23, 0x02	; 2
    151c:	81 e3       	ldi	r24, 0x31	; 49
    151e:	0e 94 42 07 	call	0xe84	; 0xe84 <LCD_Write_COM_DATA>
	LCD_Write_COM_DATA(0x32,0x0204);
    1522:	64 e0       	ldi	r22, 0x04	; 4
    1524:	72 e0       	ldi	r23, 0x02	; 2
    1526:	82 e3       	ldi	r24, 0x32	; 50
    1528:	0e 94 42 07 	call	0xe84	; 0xe84 <LCD_Write_COM_DATA>
	LCD_Write_COM_DATA(0x33,0x0502);
    152c:	62 e0       	ldi	r22, 0x02	; 2
    152e:	75 e0       	ldi	r23, 0x05	; 5
    1530:	83 e3       	ldi	r24, 0x33	; 51
    1532:	0e 94 42 07 	call	0xe84	; 0xe84 <LCD_Write_COM_DATA>
	LCD_Write_COM_DATA(0x34,0x0507);
    1536:	67 e0       	ldi	r22, 0x07	; 7
    1538:	75 e0       	ldi	r23, 0x05	; 5
    153a:	84 e3       	ldi	r24, 0x34	; 52
    153c:	0e 94 42 07 	call	0xe84	; 0xe84 <LCD_Write_COM_DATA>
	LCD_Write_COM_DATA(0x35,0x0204);
    1540:	64 e0       	ldi	r22, 0x04	; 4
    1542:	72 e0       	ldi	r23, 0x02	; 2
    1544:	85 e3       	ldi	r24, 0x35	; 53
    1546:	0e 94 42 07 	call	0xe84	; 0xe84 <LCD_Write_COM_DATA>
	LCD_Write_COM_DATA(0x36,0x0204);
    154a:	64 e0       	ldi	r22, 0x04	; 4
    154c:	72 e0       	ldi	r23, 0x02	; 2
    154e:	86 e3       	ldi	r24, 0x36	; 54
    1550:	0e 94 42 07 	call	0xe84	; 0xe84 <LCD_Write_COM_DATA>
	LCD_Write_COM_DATA(0x37,0x0502);
    1554:	62 e0       	ldi	r22, 0x02	; 2
    1556:	75 e0       	ldi	r23, 0x05	; 5
    1558:	87 e3       	ldi	r24, 0x37	; 55
    155a:	0e 94 42 07 	call	0xe84	; 0xe84 <LCD_Write_COM_DATA>
	LCD_Write_COM_DATA(0x3A,0x0302);
    155e:	62 e0       	ldi	r22, 0x02	; 2
    1560:	73 e0       	ldi	r23, 0x03	; 3
    1562:	8a e3       	ldi	r24, 0x3A	; 58
    1564:	0e 94 42 07 	call	0xe84	; 0xe84 <LCD_Write_COM_DATA>
	LCD_Write_COM_DATA(0x3B,0x0302);
    1568:	62 e0       	ldi	r22, 0x02	; 2
    156a:	73 e0       	ldi	r23, 0x03	; 3
    156c:	8b e3       	ldi	r24, 0x3B	; 59
    156e:	0e 94 42 07 	call	0xe84	; 0xe84 <LCD_Write_COM_DATA>
	LCD_Write_COM_DATA(0x23,0x0000);
    1572:	60 e0       	ldi	r22, 0x00	; 0
    1574:	70 e0       	ldi	r23, 0x00	; 0
    1576:	83 e2       	ldi	r24, 0x23	; 35
    1578:	0e 94 42 07 	call	0xe84	; 0xe84 <LCD_Write_COM_DATA>
	LCD_Write_COM_DATA(0x24,0x0000);
    157c:	60 e0       	ldi	r22, 0x00	; 0
    157e:	70 e0       	ldi	r23, 0x00	; 0
    1580:	84 e2       	ldi	r24, 0x24	; 36
    1582:	0e 94 42 07 	call	0xe84	; 0xe84 <LCD_Write_COM_DATA>
	LCD_Write_COM_DATA(0x25,0x8000);
    1586:	60 e0       	ldi	r22, 0x00	; 0
    1588:	70 e8       	ldi	r23, 0x80	; 128
    158a:	85 e2       	ldi	r24, 0x25	; 37
    158c:	0e 94 42 07 	call	0xe84	; 0xe84 <LCD_Write_COM_DATA>
	LCD_Write_COM_DATA(0x4f,0x0000);
    1590:	60 e0       	ldi	r22, 0x00	; 0
    1592:	70 e0       	ldi	r23, 0x00	; 0
    1594:	8f e4       	ldi	r24, 0x4F	; 79
    1596:	0e 94 42 07 	call	0xe84	; 0xe84 <LCD_Write_COM_DATA>
	LCD_Write_COM_DATA(0x4e,0x0000);
    159a:	60 e0       	ldi	r22, 0x00	; 0
    159c:	70 e0       	ldi	r23, 0x00	; 0
    159e:	8e e4       	ldi	r24, 0x4E	; 78
    15a0:	0e 94 42 07 	call	0xe84	; 0xe84 <LCD_Write_COM_DATA>
	LCD_Write_COM(0x22);
    15a4:	82 e2       	ldi	r24, 0x22	; 34
    15a6:	0e 94 2e 07 	call	0xe5c	; 0xe5c <LCD_Write_COM>


	sbi(CS_PORT, CS_PIN);
    15aa:	85 b3       	in	r24, 0x15	; 21
    15ac:	82 60       	ori	r24, 0x02	; 2
    15ae:	85 bb       	out	0x15, r24	; 21
    15b0:	08 95       	ret

000015b2 <_ZN4UTFTC1Ev>:
		}
		st[c2+f]=0;
	}

	print(st,x,y);
}
    15b2:	4f ee       	ldi	r20, 0xEF	; 239
    15b4:	50 e0       	ldi	r21, 0x00	; 0
    15b6:	60 e0       	ldi	r22, 0x00	; 0
    15b8:	70 e0       	ldi	r23, 0x00	; 0
    15ba:	fc 01       	movw	r30, r24
    15bc:	45 83       	std	Z+5, r20	; 0x05
    15be:	56 83       	std	Z+6, r21	; 0x06
    15c0:	67 83       	std	Z+7, r22	; 0x07
    15c2:	70 87       	std	Z+8, r23	; 0x08
    15c4:	4f e3       	ldi	r20, 0x3F	; 63
    15c6:	51 e0       	ldi	r21, 0x01	; 1
    15c8:	60 e0       	ldi	r22, 0x00	; 0
    15ca:	70 e0       	ldi	r23, 0x00	; 0
    15cc:	41 87       	std	Z+9, r20	; 0x09
    15ce:	52 87       	std	Z+10, r21	; 0x0a
    15d0:	63 87       	std	Z+11, r22	; 0x0b
    15d2:	74 87       	std	Z+12, r23	; 0x0c
    15d4:	0e 94 cc 09 	call	0x1398	; 0x1398 <SSD1289_init>
    15d8:	08 95       	ret

000015da <_ZN4UTFT5setXYEjjjj>:
    15da:	ef 92       	push	r14
    15dc:	ff 92       	push	r15
    15de:	0f 93       	push	r16
    15e0:	1f 93       	push	r17
    15e2:	cf 93       	push	r28
    15e4:	df 93       	push	r29
    15e6:	eb 01       	movw	r28, r22
    15e8:	e4 2e       	mov	r14, r20
    15ea:	f5 2e       	mov	r15, r21
    15ec:	fc 01       	movw	r30, r24
    15ee:	44 81       	ldd	r20, Z+4	; 0x04
    15f0:	41 30       	cpi	r20, 0x01	; 1
    15f2:	89 f4       	brne	.+34     	; 0x1616 <_ZN4UTFT5setXYEjjjj+0x3c>
    15f4:	81 85       	ldd	r24, Z+9	; 0x09
    15f6:	92 85       	ldd	r25, Z+10	; 0x0a
    15f8:	a3 85       	ldd	r26, Z+11	; 0x0b
    15fa:	b4 85       	ldd	r27, Z+12	; 0x0c
    15fc:	ac 01       	movw	r20, r24
    15fe:	46 1b       	sub	r20, r22
    1600:	57 0b       	sbc	r21, r23
    1602:	82 1b       	sub	r24, r18
    1604:	93 0b       	sbc	r25, r19
    1606:	20 2f       	mov	r18, r16
    1608:	31 2f       	mov	r19, r17
    160a:	04 2f       	mov	r16, r20
    160c:	15 2f       	mov	r17, r21
    160e:	ce 2d       	mov	r28, r14
    1610:	df 2d       	mov	r29, r15
    1612:	e8 2e       	mov	r14, r24
    1614:	f9 2e       	mov	r15, r25
    1616:	32 2f       	mov	r19, r18
    1618:	22 27       	eor	r18, r18
    161a:	be 01       	movw	r22, r28
    161c:	62 0f       	add	r22, r18
    161e:	73 1f       	adc	r23, r19
    1620:	84 e4       	ldi	r24, 0x44	; 68
    1622:	0e 94 42 07 	call	0xe84	; 0xe84 <LCD_Write_COM_DATA>
    1626:	6e 2d       	mov	r22, r14
    1628:	7f 2d       	mov	r23, r15
    162a:	85 e4       	ldi	r24, 0x45	; 69
    162c:	0e 94 42 07 	call	0xe84	; 0xe84 <LCD_Write_COM_DATA>
    1630:	60 2f       	mov	r22, r16
    1632:	71 2f       	mov	r23, r17
    1634:	86 e4       	ldi	r24, 0x46	; 70
    1636:	0e 94 42 07 	call	0xe84	; 0xe84 <LCD_Write_COM_DATA>
    163a:	be 01       	movw	r22, r28
    163c:	8e e4       	ldi	r24, 0x4E	; 78
    163e:	0e 94 42 07 	call	0xe84	; 0xe84 <LCD_Write_COM_DATA>
    1642:	6e 2d       	mov	r22, r14
    1644:	7f 2d       	mov	r23, r15
    1646:	8f e4       	ldi	r24, 0x4F	; 79
    1648:	0e 94 42 07 	call	0xe84	; 0xe84 <LCD_Write_COM_DATA>
    164c:	82 e2       	ldi	r24, 0x22	; 34
    164e:	0e 94 2e 07 	call	0xe5c	; 0xe5c <LCD_Write_COM>
    1652:	85 b3       	in	r24, 0x15	; 21
    1654:	80 64       	ori	r24, 0x40	; 64
    1656:	85 bb       	out	0x15, r24	; 21
    1658:	df 91       	pop	r29
    165a:	cf 91       	pop	r28
    165c:	1f 91       	pop	r17
    165e:	0f 91       	pop	r16
    1660:	ff 90       	pop	r15
    1662:	ef 90       	pop	r14
    1664:	08 95       	ret

00001666 <_ZN4UTFT8fillRectEiiii>:
    1666:	8f 92       	push	r8
    1668:	9f 92       	push	r9
    166a:	af 92       	push	r10
    166c:	bf 92       	push	r11
    166e:	cf 92       	push	r12
    1670:	df 92       	push	r13
    1672:	ef 92       	push	r14
    1674:	ff 92       	push	r15
    1676:	0f 93       	push	r16
    1678:	1f 93       	push	r17
    167a:	cf 93       	push	r28
    167c:	df 93       	push	r29
    167e:	4c 01       	movw	r8, r24
    1680:	5b 01       	movw	r10, r22
    1682:	7a 01       	movw	r14, r20
    1684:	69 01       	movw	r12, r18
    1686:	e8 01       	movw	r28, r16
    1688:	26 17       	cp	r18, r22
    168a:	37 07       	cpc	r19, r23
    168c:	24 f4       	brge	.+8      	; 0x1696 <_ZN4UTFT8fillRectEiiii+0x30>
    168e:	8b 2d       	mov	r24, r11
    1690:	59 01       	movw	r10, r18
    1692:	c6 2e       	mov	r12, r22
    1694:	d8 2e       	mov	r13, r24
    1696:	ce 15       	cp	r28, r14
    1698:	df 05       	cpc	r29, r15
    169a:	2c f4       	brge	.+10     	; 0x16a6 <_ZN4UTFT8fillRectEiiii+0x40>
    169c:	9e 2d       	mov	r25, r14
    169e:	8f 2d       	mov	r24, r15
    16a0:	7e 01       	movw	r14, r28
    16a2:	c9 2f       	mov	r28, r25
    16a4:	d8 2f       	mov	r29, r24
    16a6:	85 b3       	in	r24, 0x15	; 21
    16a8:	8d 7f       	andi	r24, 0xFD	; 253
    16aa:	85 bb       	out	0x15, r24	; 21
    16ac:	8e 01       	movw	r16, r28
    16ae:	96 01       	movw	r18, r12
    16b0:	a7 01       	movw	r20, r14
    16b2:	b5 01       	movw	r22, r10
    16b4:	c4 01       	movw	r24, r8
    16b6:	0e 94 ed 0a 	call	0x15da	; 0x15da <_ZN4UTFT5setXYEjjjj>
    16ba:	f4 01       	movw	r30, r8
    16bc:	80 81       	ld	r24, Z
    16be:	82 bb       	out	0x12, r24	; 18
    16c0:	81 81       	ldd	r24, Z+1	; 0x01
    16c2:	8b bb       	out	0x1b, r24	; 27
    16c4:	96 01       	movw	r18, r12
    16c6:	2a 19       	sub	r18, r10
    16c8:	3b 09       	sbc	r19, r11
    16ca:	c9 01       	movw	r24, r18
    16cc:	33 0f       	add	r19, r19
    16ce:	aa 0b       	sbc	r26, r26
    16d0:	bb 0b       	sbc	r27, r27
    16d2:	9c 01       	movw	r18, r24
    16d4:	ad 01       	movw	r20, r26
    16d6:	2f 5f       	subi	r18, 0xFF	; 255
    16d8:	3f 4f       	sbci	r19, 0xFF	; 255
    16da:	4f 4f       	sbci	r20, 0xFF	; 255
    16dc:	5f 4f       	sbci	r21, 0xFF	; 255
    16de:	be 01       	movw	r22, r28
    16e0:	6e 19       	sub	r22, r14
    16e2:	7f 09       	sbc	r23, r15
    16e4:	cb 01       	movw	r24, r22
    16e6:	77 0f       	add	r23, r23
    16e8:	aa 0b       	sbc	r26, r26
    16ea:	bb 0b       	sbc	r27, r27
    16ec:	bc 01       	movw	r22, r24
    16ee:	cd 01       	movw	r24, r26
    16f0:	6f 5f       	subi	r22, 0xFF	; 255
    16f2:	7f 4f       	sbci	r23, 0xFF	; 255
    16f4:	8f 4f       	sbci	r24, 0xFF	; 255
    16f6:	9f 4f       	sbci	r25, 0xFF	; 255
    16f8:	0e 94 51 12 	call	0x24a2	; 0x24a2 <__mulsi3>
    16fc:	0e 94 e5 06 	call	0xdca	; 0xdca <fastfill>
    1700:	8f ef       	ldi	r24, 0xFF	; 255
    1702:	8b bb       	out	0x1b, r24	; 27
    1704:	82 bb       	out	0x12, r24	; 18
    1706:	85 b3       	in	r24, 0x15	; 21
    1708:	8d 7f       	andi	r24, 0xFD	; 253
    170a:	85 bb       	out	0x15, r24	; 21
    170c:	df 91       	pop	r29
    170e:	cf 91       	pop	r28
    1710:	1f 91       	pop	r17
    1712:	0f 91       	pop	r16
    1714:	ff 90       	pop	r15
    1716:	ef 90       	pop	r14
    1718:	df 90       	pop	r13
    171a:	cf 90       	pop	r12
    171c:	bf 90       	pop	r11
    171e:	af 90       	pop	r10
    1720:	9f 90       	pop	r9
    1722:	8f 90       	pop	r8
    1724:	08 95       	ret

00001726 <_ZN4UTFT6clrScrEv>:
    1726:	85 b3       	in	r24, 0x15	; 21
    1728:	8d 7f       	andi	r24, 0xFD	; 253
    172a:	85 bb       	out	0x15, r24	; 21
    172c:	60 e0       	ldi	r22, 0x00	; 0
    172e:	7f ee       	ldi	r23, 0xEF	; 239
    1730:	84 e4       	ldi	r24, 0x44	; 68
    1732:	0e 94 42 07 	call	0xe84	; 0xe84 <LCD_Write_COM_DATA>
    1736:	60 e0       	ldi	r22, 0x00	; 0
    1738:	70 e0       	ldi	r23, 0x00	; 0
    173a:	85 e4       	ldi	r24, 0x45	; 69
    173c:	0e 94 42 07 	call	0xe84	; 0xe84 <LCD_Write_COM_DATA>
    1740:	6f e3       	ldi	r22, 0x3F	; 63
    1742:	71 e0       	ldi	r23, 0x01	; 1
    1744:	86 e4       	ldi	r24, 0x46	; 70
    1746:	0e 94 42 07 	call	0xe84	; 0xe84 <LCD_Write_COM_DATA>
    174a:	60 e0       	ldi	r22, 0x00	; 0
    174c:	70 e0       	ldi	r23, 0x00	; 0
    174e:	8e e4       	ldi	r24, 0x4E	; 78
    1750:	0e 94 42 07 	call	0xe84	; 0xe84 <LCD_Write_COM_DATA>
    1754:	60 e0       	ldi	r22, 0x00	; 0
    1756:	70 e0       	ldi	r23, 0x00	; 0
    1758:	8f e4       	ldi	r24, 0x4F	; 79
    175a:	0e 94 42 07 	call	0xe84	; 0xe84 <LCD_Write_COM_DATA>
    175e:	68 e7       	ldi	r22, 0x78	; 120
    1760:	70 e6       	ldi	r23, 0x60	; 96
    1762:	81 e1       	ldi	r24, 0x11	; 17
    1764:	0e 94 42 07 	call	0xe84	; 0xe84 <LCD_Write_COM_DATA>
    1768:	82 e2       	ldi	r24, 0x22	; 34
    176a:	0e 94 2e 07 	call	0xe5c	; 0xe5c <LCD_Write_COM>
    176e:	85 b3       	in	r24, 0x15	; 21
    1770:	80 64       	ori	r24, 0x40	; 64
    1772:	85 bb       	out	0x15, r24	; 21
    1774:	1b ba       	out	0x1b, r1	; 27
    1776:	12 ba       	out	0x12, r1	; 18
    1778:	60 e0       	ldi	r22, 0x00	; 0
    177a:	7c e2       	ldi	r23, 0x2C	; 44
    177c:	81 e0       	ldi	r24, 0x01	; 1
    177e:	90 e0       	ldi	r25, 0x00	; 0
    1780:	0e 94 e5 06 	call	0xdca	; 0xdca <fastfill>
    1784:	8f ef       	ldi	r24, 0xFF	; 255
    1786:	8b bb       	out	0x1b, r24	; 27
    1788:	82 bb       	out	0x12, r24	; 18
    178a:	85 b3       	in	r24, 0x15	; 21
    178c:	8d 7f       	andi	r24, 0xFD	; 253
    178e:	85 bb       	out	0x15, r24	; 21
    1790:	08 95       	ret

00001792 <_ZN4UTFT8setColorEhhh>:
    1792:	e4 2f       	mov	r30, r20
    1794:	f0 e0       	ldi	r31, 0x00	; 0
    1796:	f5 95       	asr	r31
    1798:	e7 95       	ror	r30
    179a:	f5 95       	asr	r31
    179c:	e7 95       	ror	r30
    179e:	f5 95       	asr	r31
    17a0:	e7 95       	ror	r30
    17a2:	f5 95       	asr	r31
    17a4:	e7 95       	ror	r30
    17a6:	f5 95       	asr	r31
    17a8:	e7 95       	ror	r30
    17aa:	68 7f       	andi	r22, 0xF8	; 248
    17ac:	e6 2b       	or	r30, r22
    17ae:	dc 01       	movw	r26, r24
    17b0:	ec 93       	st	X, r30
    17b2:	4c 71       	andi	r20, 0x1C	; 28
    17b4:	50 e0       	ldi	r21, 0x00	; 0
    17b6:	44 0f       	add	r20, r20
    17b8:	55 1f       	adc	r21, r21
    17ba:	44 0f       	add	r20, r20
    17bc:	55 1f       	adc	r21, r21
    17be:	44 0f       	add	r20, r20
    17c0:	55 1f       	adc	r21, r21
    17c2:	30 e0       	ldi	r19, 0x00	; 0
    17c4:	35 95       	asr	r19
    17c6:	27 95       	ror	r18
    17c8:	35 95       	asr	r19
    17ca:	27 95       	ror	r18
    17cc:	35 95       	asr	r19
    17ce:	27 95       	ror	r18
    17d0:	42 2b       	or	r20, r18
    17d2:	11 96       	adiw	r26, 0x01	; 1
    17d4:	4c 93       	st	X, r20
    17d6:	08 95       	ret

000017d8 <_ZN4UTFT12setBackColorEhhh>:
    17d8:	e4 2f       	mov	r30, r20
    17da:	f0 e0       	ldi	r31, 0x00	; 0
    17dc:	f5 95       	asr	r31
    17de:	e7 95       	ror	r30
    17e0:	f5 95       	asr	r31
    17e2:	e7 95       	ror	r30
    17e4:	f5 95       	asr	r31
    17e6:	e7 95       	ror	r30
    17e8:	f5 95       	asr	r31
    17ea:	e7 95       	ror	r30
    17ec:	f5 95       	asr	r31
    17ee:	e7 95       	ror	r30
    17f0:	68 7f       	andi	r22, 0xF8	; 248
    17f2:	e6 2b       	or	r30, r22
    17f4:	dc 01       	movw	r26, r24
    17f6:	12 96       	adiw	r26, 0x02	; 2
    17f8:	ec 93       	st	X, r30
    17fa:	12 97       	sbiw	r26, 0x02	; 2
    17fc:	4c 71       	andi	r20, 0x1C	; 28
    17fe:	50 e0       	ldi	r21, 0x00	; 0
    1800:	44 0f       	add	r20, r20
    1802:	55 1f       	adc	r21, r21
    1804:	44 0f       	add	r20, r20
    1806:	55 1f       	adc	r21, r21
    1808:	44 0f       	add	r20, r20
    180a:	55 1f       	adc	r21, r21
    180c:	30 e0       	ldi	r19, 0x00	; 0
    180e:	35 95       	asr	r19
    1810:	27 95       	ror	r18
    1812:	35 95       	asr	r19
    1814:	27 95       	ror	r18
    1816:	35 95       	asr	r19
    1818:	27 95       	ror	r18
    181a:	42 2b       	or	r20, r18
    181c:	13 96       	adiw	r26, 0x03	; 3
    181e:	4c 93       	st	X, r20
    1820:	08 95       	ret

00001822 <_ZN4UTFT7InitLCDEh>:
    1822:	cf 93       	push	r28
    1824:	df 93       	push	r29
    1826:	ec 01       	movw	r28, r24
    1828:	6c 83       	std	Y+4, r22	; 0x04
    182a:	2f ef       	ldi	r18, 0xFF	; 255
    182c:	4f ef       	ldi	r20, 0xFF	; 255
    182e:	6f ef       	ldi	r22, 0xFF	; 255
    1830:	0e 94 c9 0b 	call	0x1792	; 0x1792 <_ZN4UTFT8setColorEhhh>
    1834:	20 e0       	ldi	r18, 0x00	; 0
    1836:	40 e0       	ldi	r20, 0x00	; 0
    1838:	60 e0       	ldi	r22, 0x00	; 0
    183a:	ce 01       	movw	r24, r28
    183c:	0e 94 ec 0b 	call	0x17d8	; 0x17d8 <_ZN4UTFT12setBackColorEhhh>
    1840:	1e 86       	std	Y+14, r1	; 0x0e
    1842:	1d 86       	std	Y+13, r1	; 0x0d
    1844:	df 91       	pop	r29
    1846:	cf 91       	pop	r28
    1848:	08 95       	ret

0000184a <_ZN4UTFT8setPixelEj>:
    184a:	87 2f       	mov	r24, r23
    184c:	0e 94 35 07 	call	0xe6a	; 0xe6a <LCD_Write_DATA>
    1850:	08 95       	ret

00001852 <_ZN4UTFT9drawHLineEiii>:
    1852:	ef 92       	push	r14
    1854:	ff 92       	push	r15
    1856:	0f 93       	push	r16
    1858:	1f 93       	push	r17
    185a:	cf 93       	push	r28
    185c:	df 93       	push	r29
    185e:	7c 01       	movw	r14, r24
    1860:	e9 01       	movw	r28, r18
    1862:	dd 23       	and	r29, r29
    1864:	2c f4       	brge	.+10     	; 0x1870 <_ZN4UTFT9drawHLineEiii+0x1e>
    1866:	62 0f       	add	r22, r18
    1868:	73 1f       	adc	r23, r19
    186a:	d1 95       	neg	r29
    186c:	c1 95       	neg	r28
    186e:	d1 09       	sbc	r29, r1
    1870:	85 b3       	in	r24, 0x15	; 21
    1872:	8d 7f       	andi	r24, 0xFD	; 253
    1874:	85 bb       	out	0x15, r24	; 21
    1876:	9b 01       	movw	r18, r22
    1878:	2c 0f       	add	r18, r28
    187a:	3d 1f       	adc	r19, r29
    187c:	8a 01       	movw	r16, r20
    187e:	c7 01       	movw	r24, r14
    1880:	0e 94 ed 0a 	call	0x15da	; 0x15da <_ZN4UTFT5setXYEjjjj>
    1884:	f7 01       	movw	r30, r14
    1886:	80 81       	ld	r24, Z
    1888:	82 bb       	out	0x12, r24	; 18
    188a:	81 81       	ldd	r24, Z+1	; 0x01
    188c:	8b bb       	out	0x1b, r24	; 27
    188e:	be 01       	movw	r22, r28
    1890:	dd 0f       	add	r29, r29
    1892:	88 0b       	sbc	r24, r24
    1894:	99 0b       	sbc	r25, r25
    1896:	0e 94 e5 06 	call	0xdca	; 0xdca <fastfill>
    189a:	8f ef       	ldi	r24, 0xFF	; 255
    189c:	8b bb       	out	0x1b, r24	; 27
    189e:	82 bb       	out	0x12, r24	; 18
    18a0:	85 b3       	in	r24, 0x15	; 21
    18a2:	82 60       	ori	r24, 0x02	; 2
    18a4:	85 bb       	out	0x15, r24	; 21
    18a6:	df 91       	pop	r29
    18a8:	cf 91       	pop	r28
    18aa:	1f 91       	pop	r17
    18ac:	0f 91       	pop	r16
    18ae:	ff 90       	pop	r15
    18b0:	ef 90       	pop	r14
    18b2:	08 95       	ret

000018b4 <_ZN4UTFT10fillCircleEiii>:
    18b4:	4f 92       	push	r4
    18b6:	5f 92       	push	r5
    18b8:	6f 92       	push	r6
    18ba:	7f 92       	push	r7
    18bc:	8f 92       	push	r8
    18be:	9f 92       	push	r9
    18c0:	af 92       	push	r10
    18c2:	bf 92       	push	r11
    18c4:	cf 92       	push	r12
    18c6:	df 92       	push	r13
    18c8:	ef 92       	push	r14
    18ca:	ff 92       	push	r15
    18cc:	0f 93       	push	r16
    18ce:	1f 93       	push	r17
    18d0:	cf 93       	push	r28
    18d2:	df 93       	push	r29
    18d4:	3c 01       	movw	r6, r24
    18d6:	4b 01       	movw	r8, r22
    18d8:	5a 01       	movw	r10, r20
    18da:	79 01       	movw	r14, r18
    18dc:	44 24       	eor	r4, r4
    18de:	55 24       	eor	r5, r5
    18e0:	42 1a       	sub	r4, r18
    18e2:	53 0a       	sbc	r5, r19
    18e4:	82 01       	movw	r16, r4
    18e6:	10 16       	cp	r1, r16
    18e8:	11 06       	cpc	r1, r17
    18ea:	cc f1       	brlt	.+114    	; 0x195e <_ZN4UTFT10fillCircleEiii+0xaa>
    18ec:	e2 01       	movw	r28, r4
    18ee:	1c 16       	cp	r1, r28
    18f0:	1d 06       	cpc	r1, r29
    18f2:	94 f1       	brlt	.+100    	; 0x1958 <_ZN4UTFT10fillCircleEiii+0xa4>
    18f4:	cc 9f       	mul	r28, r28
    18f6:	c0 01       	movw	r24, r0
    18f8:	cd 9f       	mul	r28, r29
    18fa:	90 0d       	add	r25, r0
    18fc:	90 0d       	add	r25, r0
    18fe:	11 24       	eor	r1, r1
    1900:	00 9f       	mul	r16, r16
    1902:	90 01       	movw	r18, r0
    1904:	01 9f       	mul	r16, r17
    1906:	30 0d       	add	r19, r0
    1908:	30 0d       	add	r19, r0
    190a:	11 24       	eor	r1, r1
    190c:	82 0f       	add	r24, r18
    190e:	93 1f       	adc	r25, r19
    1910:	ee 9c       	mul	r14, r14
    1912:	90 01       	movw	r18, r0
    1914:	ef 9c       	mul	r14, r15
    1916:	30 0d       	add	r19, r0
    1918:	30 0d       	add	r19, r0
    191a:	11 24       	eor	r1, r1
    191c:	28 17       	cp	r18, r24
    191e:	39 07       	cpc	r19, r25
    1920:	cc f0       	brlt	.+50     	; 0x1954 <_ZN4UTFT10fillCircleEiii+0xa0>
    1922:	cc 24       	eor	r12, r12
    1924:	dd 24       	eor	r13, r13
    1926:	cc 1a       	sub	r12, r28
    1928:	dd 0a       	sbc	r13, r29
    192a:	cc 0c       	add	r12, r12
    192c:	dd 1c       	adc	r13, r13
    192e:	c8 0d       	add	r28, r8
    1930:	d9 1d       	adc	r29, r9
    1932:	96 01       	movw	r18, r12
    1934:	a8 01       	movw	r20, r16
    1936:	4a 0d       	add	r20, r10
    1938:	5b 1d       	adc	r21, r11
    193a:	be 01       	movw	r22, r28
    193c:	c3 01       	movw	r24, r6
    193e:	0e 94 29 0c 	call	0x1852	; 0x1852 <_ZN4UTFT9drawHLineEiii>
    1942:	96 01       	movw	r18, r12
    1944:	a5 01       	movw	r20, r10
    1946:	40 1b       	sub	r20, r16
    1948:	51 0b       	sbc	r21, r17
    194a:	be 01       	movw	r22, r28
    194c:	c3 01       	movw	r24, r6
    194e:	0e 94 29 0c 	call	0x1852	; 0x1852 <_ZN4UTFT9drawHLineEiii>
    1952:	02 c0       	rjmp	.+4      	; 0x1958 <_ZN4UTFT10fillCircleEiii+0xa4>
    1954:	21 96       	adiw	r28, 0x01	; 1
    1956:	cb cf       	rjmp	.-106    	; 0x18ee <_ZN4UTFT10fillCircleEiii+0x3a>
    1958:	0f 5f       	subi	r16, 0xFF	; 255
    195a:	1f 4f       	sbci	r17, 0xFF	; 255
    195c:	c4 cf       	rjmp	.-120    	; 0x18e6 <_ZN4UTFT10fillCircleEiii+0x32>
    195e:	df 91       	pop	r29
    1960:	cf 91       	pop	r28
    1962:	1f 91       	pop	r17
    1964:	0f 91       	pop	r16
    1966:	ff 90       	pop	r15
    1968:	ef 90       	pop	r14
    196a:	df 90       	pop	r13
    196c:	cf 90       	pop	r12
    196e:	bf 90       	pop	r11
    1970:	af 90       	pop	r10
    1972:	9f 90       	pop	r9
    1974:	8f 90       	pop	r8
    1976:	7f 90       	pop	r7
    1978:	6f 90       	pop	r6
    197a:	5f 90       	pop	r5
    197c:	4f 90       	pop	r4
    197e:	08 95       	ret

00001980 <_ZN4UTFT9printCharEhii>:
    1980:	af 92       	push	r10
    1982:	bf 92       	push	r11
    1984:	cf 92       	push	r12
    1986:	df 92       	push	r13
    1988:	ef 92       	push	r14
    198a:	ff 92       	push	r15
    198c:	0f 93       	push	r16
    198e:	1f 93       	push	r17
    1990:	cf 93       	push	r28
    1992:	df 93       	push	r29
    1994:	ec 01       	movw	r28, r24
    1996:	7a 01       	movw	r14, r20
    1998:	89 01       	movw	r16, r18
    199a:	85 b3       	in	r24, 0x15	; 21
    199c:	8d 7f       	andi	r24, 0xFD	; 253
    199e:	85 bb       	out	0x15, r24	; 21
    19a0:	8c 81       	ldd	r24, Y+4	; 0x04
    19a2:	81 11       	cpse	r24, r1
    19a4:	69 c0       	rjmp	.+210    	; 0x1a78 <_ZN4UTFT9printCharEhii+0xf8>
    19a6:	29 89       	ldd	r18, Y+17	; 0x11
    19a8:	86 2f       	mov	r24, r22
    19aa:	90 e0       	ldi	r25, 0x00	; 0
    19ac:	82 1b       	sub	r24, r18
    19ae:	91 09       	sbc	r25, r1
    19b0:	4f 85       	ldd	r20, Y+15	; 0x0f
    19b2:	54 2f       	mov	r21, r20
    19b4:	56 95       	lsr	r21
    19b6:	56 95       	lsr	r21
    19b8:	56 95       	lsr	r21
    19ba:	28 89       	ldd	r18, Y+16	; 0x10
    19bc:	30 e0       	ldi	r19, 0x00	; 0
    19be:	52 9f       	mul	r21, r18
    19c0:	b0 01       	movw	r22, r0
    19c2:	53 9f       	mul	r21, r19
    19c4:	70 0d       	add	r23, r0
    19c6:	11 24       	eor	r1, r1
    19c8:	86 9f       	mul	r24, r22
    19ca:	60 01       	movw	r12, r0
    19cc:	87 9f       	mul	r24, r23
    19ce:	d0 0c       	add	r13, r0
    19d0:	96 9f       	mul	r25, r22
    19d2:	d0 0c       	add	r13, r0
    19d4:	11 24       	eor	r1, r1
    19d6:	84 e0       	ldi	r24, 0x04	; 4
    19d8:	c8 0e       	add	r12, r24
    19da:	d1 1c       	adc	r13, r1
    19dc:	c7 01       	movw	r24, r14
    19de:	84 0f       	add	r24, r20
    19e0:	91 1d       	adc	r25, r1
    19e2:	20 0f       	add	r18, r16
    19e4:	31 1f       	adc	r19, r17
    19e6:	59 01       	movw	r10, r18
    19e8:	41 e0       	ldi	r20, 0x01	; 1
    19ea:	a4 1a       	sub	r10, r20
    19ec:	b1 08       	sbc	r11, r1
    19ee:	60 e0       	ldi	r22, 0x00	; 0
    19f0:	70 e0       	ldi	r23, 0x00	; 0
    19f2:	7f ef       	ldi	r23, 0xFF	; 255
    19f4:	78 0f       	add	r23, r24
    19f6:	6e 0d       	add	r22, r14
    19f8:	7f 1d       	adc	r23, r15
    19fa:	84 e4       	ldi	r24, 0x44	; 68
    19fc:	0e 94 42 07 	call	0xe84	; 0xe84 <LCD_Write_COM_DATA>
    1a00:	b8 01       	movw	r22, r16
    1a02:	85 e4       	ldi	r24, 0x45	; 69
    1a04:	0e 94 42 07 	call	0xe84	; 0xe84 <LCD_Write_COM_DATA>
    1a08:	b5 01       	movw	r22, r10
    1a0a:	86 e4       	ldi	r24, 0x46	; 70
    1a0c:	0e 94 42 07 	call	0xe84	; 0xe84 <LCD_Write_COM_DATA>
    1a10:	b7 01       	movw	r22, r14
    1a12:	8e e4       	ldi	r24, 0x4E	; 78
    1a14:	0e 94 42 07 	call	0xe84	; 0xe84 <LCD_Write_COM_DATA>
    1a18:	b8 01       	movw	r22, r16
    1a1a:	8f e4       	ldi	r24, 0x4F	; 79
    1a1c:	0e 94 42 07 	call	0xe84	; 0xe84 <LCD_Write_COM_DATA>
    1a20:	60 e7       	ldi	r22, 0x70	; 112
    1a22:	70 e6       	ldi	r23, 0x60	; 96
    1a24:	81 e1       	ldi	r24, 0x11	; 17
    1a26:	0e 94 42 07 	call	0xe84	; 0xe84 <LCD_Write_COM_DATA>
    1a2a:	82 e2       	ldi	r24, 0x22	; 34
    1a2c:	0e 94 2e 07 	call	0xe5c	; 0xe5c <LCD_Write_COM>
    1a30:	85 b3       	in	r24, 0x15	; 21
    1a32:	80 64       	ori	r24, 0x40	; 64
    1a34:	85 bb       	out	0x15, r24	; 21
    1a36:	2a 81       	ldd	r18, Y+2	; 0x02
    1a38:	30 e0       	ldi	r19, 0x00	; 0
    1a3a:	32 2f       	mov	r19, r18
    1a3c:	22 27       	eor	r18, r18
    1a3e:	8b 81       	ldd	r24, Y+3	; 0x03
    1a40:	28 2b       	or	r18, r24
    1a42:	48 81       	ld	r20, Y
    1a44:	50 e0       	ldi	r21, 0x00	; 0
    1a46:	54 2f       	mov	r21, r20
    1a48:	44 27       	eor	r20, r20
    1a4a:	89 81       	ldd	r24, Y+1	; 0x01
    1a4c:	48 2b       	or	r20, r24
    1a4e:	6d 85       	ldd	r22, Y+13	; 0x0d
    1a50:	7e 85       	ldd	r23, Y+14	; 0x0e
    1a52:	6c 0d       	add	r22, r12
    1a54:	7d 1d       	adc	r23, r13
    1a56:	88 89       	ldd	r24, Y+16	; 0x10
    1a58:	9f 85       	ldd	r25, Y+15	; 0x0f
    1a5a:	89 9f       	mul	r24, r25
    1a5c:	c0 01       	movw	r24, r0
    1a5e:	11 24       	eor	r1, r1
    1a60:	99 23       	and	r25, r25
    1a62:	0c f4       	brge	.+2      	; 0x1a66 <_ZN4UTFT9printCharEhii+0xe6>
    1a64:	07 96       	adiw	r24, 0x07	; 7
    1a66:	95 95       	asr	r25
    1a68:	87 95       	ror	r24
    1a6a:	95 95       	asr	r25
    1a6c:	87 95       	ror	r24
    1a6e:	95 95       	asr	r25
    1a70:	87 95       	ror	r24
    1a72:	0e 94 56 06 	call	0xcac	; 0xcac <fastbitmap_1bit>
    1a76:	6f c0       	rjmp	.+222    	; 0x1b56 <_ZN4UTFT9printCharEhii+0x1d6>
    1a78:	29 89       	ldd	r18, Y+17	; 0x11
    1a7a:	86 2f       	mov	r24, r22
    1a7c:	90 e0       	ldi	r25, 0x00	; 0
    1a7e:	82 1b       	sub	r24, r18
    1a80:	91 09       	sbc	r25, r1
    1a82:	4f 85       	ldd	r20, Y+15	; 0x0f
    1a84:	54 2f       	mov	r21, r20
    1a86:	56 95       	lsr	r21
    1a88:	56 95       	lsr	r21
    1a8a:	56 95       	lsr	r21
    1a8c:	28 89       	ldd	r18, Y+16	; 0x10
    1a8e:	30 e0       	ldi	r19, 0x00	; 0
    1a90:	52 9f       	mul	r21, r18
    1a92:	b0 01       	movw	r22, r0
    1a94:	53 9f       	mul	r21, r19
    1a96:	70 0d       	add	r23, r0
    1a98:	11 24       	eor	r1, r1
    1a9a:	86 9f       	mul	r24, r22
    1a9c:	60 01       	movw	r12, r0
    1a9e:	87 9f       	mul	r24, r23
    1aa0:	d0 0c       	add	r13, r0
    1aa2:	96 9f       	mul	r25, r22
    1aa4:	d0 0c       	add	r13, r0
    1aa6:	11 24       	eor	r1, r1
    1aa8:	84 e0       	ldi	r24, 0x04	; 4
    1aaa:	c8 0e       	add	r12, r24
    1aac:	d1 1c       	adc	r13, r1
    1aae:	c7 01       	movw	r24, r14
    1ab0:	84 0f       	add	r24, r20
    1ab2:	91 1d       	adc	r25, r1
    1ab4:	01 97       	sbiw	r24, 0x01	; 1
    1ab6:	20 0f       	add	r18, r16
    1ab8:	31 1f       	adc	r19, r17
    1aba:	49 85       	ldd	r20, Y+9	; 0x09
    1abc:	5a 85       	ldd	r21, Y+10	; 0x0a
    1abe:	6b 85       	ldd	r22, Y+11	; 0x0b
    1ac0:	7c 85       	ldd	r23, Y+12	; 0x0c
    1ac2:	5a 01       	movw	r10, r20
    1ac4:	ae 18       	sub	r10, r14
    1ac6:	bf 08       	sbc	r11, r15
    1ac8:	7a 01       	movw	r14, r20
    1aca:	e8 1a       	sub	r14, r24
    1acc:	f9 0a       	sbc	r15, r25
    1ace:	60 e0       	ldi	r22, 0x00	; 0
    1ad0:	70 e0       	ldi	r23, 0x00	; 0
    1ad2:	7f ef       	ldi	r23, 0xFF	; 255
    1ad4:	72 0f       	add	r23, r18
    1ad6:	60 0f       	add	r22, r16
    1ad8:	71 1f       	adc	r23, r17
    1ada:	84 e4       	ldi	r24, 0x44	; 68
    1adc:	0e 94 42 07 	call	0xe84	; 0xe84 <LCD_Write_COM_DATA>
    1ae0:	b7 01       	movw	r22, r14
    1ae2:	85 e4       	ldi	r24, 0x45	; 69
    1ae4:	0e 94 42 07 	call	0xe84	; 0xe84 <LCD_Write_COM_DATA>
    1ae8:	b5 01       	movw	r22, r10
    1aea:	86 e4       	ldi	r24, 0x46	; 70
    1aec:	0e 94 42 07 	call	0xe84	; 0xe84 <LCD_Write_COM_DATA>
    1af0:	b8 01       	movw	r22, r16
    1af2:	8e e4       	ldi	r24, 0x4E	; 78
    1af4:	0e 94 42 07 	call	0xe84	; 0xe84 <LCD_Write_COM_DATA>
    1af8:	b5 01       	movw	r22, r10
    1afa:	8f e4       	ldi	r24, 0x4F	; 79
    1afc:	0e 94 42 07 	call	0xe84	; 0xe84 <LCD_Write_COM_DATA>
    1b00:	68 e5       	ldi	r22, 0x58	; 88
    1b02:	70 e6       	ldi	r23, 0x60	; 96
    1b04:	81 e1       	ldi	r24, 0x11	; 17
    1b06:	0e 94 42 07 	call	0xe84	; 0xe84 <LCD_Write_COM_DATA>
    1b0a:	82 e2       	ldi	r24, 0x22	; 34
    1b0c:	0e 94 2e 07 	call	0xe5c	; 0xe5c <LCD_Write_COM>
    1b10:	85 b3       	in	r24, 0x15	; 21
    1b12:	80 64       	ori	r24, 0x40	; 64
    1b14:	85 bb       	out	0x15, r24	; 21
    1b16:	2a 81       	ldd	r18, Y+2	; 0x02
    1b18:	30 e0       	ldi	r19, 0x00	; 0
    1b1a:	32 2f       	mov	r19, r18
    1b1c:	22 27       	eor	r18, r18
    1b1e:	8b 81       	ldd	r24, Y+3	; 0x03
    1b20:	28 2b       	or	r18, r24
    1b22:	48 81       	ld	r20, Y
    1b24:	50 e0       	ldi	r21, 0x00	; 0
    1b26:	54 2f       	mov	r21, r20
    1b28:	44 27       	eor	r20, r20
    1b2a:	89 81       	ldd	r24, Y+1	; 0x01
    1b2c:	48 2b       	or	r20, r24
    1b2e:	6d 85       	ldd	r22, Y+13	; 0x0d
    1b30:	7e 85       	ldd	r23, Y+14	; 0x0e
    1b32:	6c 0d       	add	r22, r12
    1b34:	7d 1d       	adc	r23, r13
    1b36:	88 89       	ldd	r24, Y+16	; 0x10
    1b38:	9f 85       	ldd	r25, Y+15	; 0x0f
    1b3a:	89 9f       	mul	r24, r25
    1b3c:	c0 01       	movw	r24, r0
    1b3e:	11 24       	eor	r1, r1
    1b40:	99 23       	and	r25, r25
    1b42:	0c f4       	brge	.+2      	; 0x1b46 <_ZN4UTFT9printCharEhii+0x1c6>
    1b44:	07 96       	adiw	r24, 0x07	; 7
    1b46:	95 95       	asr	r25
    1b48:	87 95       	ror	r24
    1b4a:	95 95       	asr	r25
    1b4c:	87 95       	ror	r24
    1b4e:	95 95       	asr	r25
    1b50:	87 95       	ror	r24
    1b52:	0e 94 56 06 	call	0xcac	; 0xcac <fastbitmap_1bit>
    1b56:	85 b3       	in	r24, 0x15	; 21
    1b58:	82 60       	ori	r24, 0x02	; 2
    1b5a:	85 bb       	out	0x15, r24	; 21
    1b5c:	df 91       	pop	r29
    1b5e:	cf 91       	pop	r28
    1b60:	1f 91       	pop	r17
    1b62:	0f 91       	pop	r16
    1b64:	ff 90       	pop	r15
    1b66:	ef 90       	pop	r14
    1b68:	df 90       	pop	r13
    1b6a:	cf 90       	pop	r12
    1b6c:	bf 90       	pop	r11
    1b6e:	af 90       	pop	r10
    1b70:	08 95       	ret

00001b72 <_ZN4UTFT10rotateCharEhiiii>:
    1b72:	2f 92       	push	r2
    1b74:	3f 92       	push	r3
    1b76:	4f 92       	push	r4
    1b78:	5f 92       	push	r5
    1b7a:	6f 92       	push	r6
    1b7c:	7f 92       	push	r7
    1b7e:	8f 92       	push	r8
    1b80:	9f 92       	push	r9
    1b82:	af 92       	push	r10
    1b84:	bf 92       	push	r11
    1b86:	cf 92       	push	r12
    1b88:	df 92       	push	r13
    1b8a:	ef 92       	push	r14
    1b8c:	ff 92       	push	r15
    1b8e:	0f 93       	push	r16
    1b90:	1f 93       	push	r17
    1b92:	cf 93       	push	r28
    1b94:	df 93       	push	r29
    1b96:	cd b7       	in	r28, 0x3d	; 61
    1b98:	de b7       	in	r29, 0x3e	; 62
    1b9a:	6b 97       	sbiw	r28, 0x1b	; 27
    1b9c:	0f b6       	in	r0, 0x3f	; 63
    1b9e:	f8 94       	cli
    1ba0:	de bf       	out	0x3e, r29	; 62
    1ba2:	0f be       	out	0x3f, r0	; 63
    1ba4:	cd bf       	out	0x3d, r28	; 61
    1ba6:	5c 01       	movw	r10, r24
    1ba8:	69 83       	std	Y+1, r22	; 0x01
    1baa:	3a 01       	movw	r6, r20
    1bac:	49 01       	movw	r8, r18
    1bae:	1f 8b       	std	Y+23, r17	; 0x17
    1bb0:	0e 8b       	std	Y+22, r16	; 0x16
    1bb2:	b7 01       	movw	r22, r14
    1bb4:	ff 0c       	add	r15, r15
    1bb6:	88 0b       	sbc	r24, r24
    1bb8:	99 0b       	sbc	r25, r25
    1bba:	0e 94 c8 10 	call	0x2190	; 0x2190 <__floatsisf>
    1bbe:	29 e2       	ldi	r18, 0x29	; 41
    1bc0:	3c e5       	ldi	r19, 0x5C	; 92
    1bc2:	4f e8       	ldi	r20, 0x8F	; 143
    1bc4:	5c e3       	ldi	r21, 0x3C	; 60
    1bc6:	0e 94 93 11 	call	0x2326	; 0x2326 <__mulsf3>
    1bca:	69 8b       	std	Y+17, r22	; 0x11
    1bcc:	7a 8b       	std	Y+18, r23	; 0x12
    1bce:	8b 8b       	std	Y+19, r24	; 0x13
    1bd0:	9c 8b       	std	Y+20, r25	; 0x14
    1bd2:	85 b3       	in	r24, 0x15	; 21
    1bd4:	8d 7f       	andi	r24, 0xFD	; 253
    1bd6:	85 bb       	out	0x15, r24	; 21
    1bd8:	d5 01       	movw	r26, r10
    1bda:	51 96       	adiw	r26, 0x11	; 17
    1bdc:	8c 91       	ld	r24, X
    1bde:	b9 81       	ldd	r27, Y+1	; 0x01
    1be0:	2b 2f       	mov	r18, r27
    1be2:	30 e0       	ldi	r19, 0x00	; 0
    1be4:	28 1b       	sub	r18, r24
    1be6:	31 09       	sbc	r19, r1
    1be8:	f5 01       	movw	r30, r10
    1bea:	87 85       	ldd	r24, Z+15	; 0x0f
    1bec:	86 95       	lsr	r24
    1bee:	86 95       	lsr	r24
    1bf0:	86 95       	lsr	r24
    1bf2:	90 89       	ldd	r25, Z+16	; 0x10
    1bf4:	89 9f       	mul	r24, r25
    1bf6:	c0 01       	movw	r24, r0
    1bf8:	11 24       	eor	r1, r1
    1bfa:	28 9f       	mul	r18, r24
    1bfc:	a0 01       	movw	r20, r0
    1bfe:	29 9f       	mul	r18, r25
    1c00:	50 0d       	add	r21, r0
    1c02:	38 9f       	mul	r19, r24
    1c04:	50 0d       	add	r21, r0
    1c06:	11 24       	eor	r1, r1
    1c08:	9a 01       	movw	r18, r20
    1c0a:	2c 5f       	subi	r18, 0xFC	; 252
    1c0c:	3f 4f       	sbci	r19, 0xFF	; 255
    1c0e:	39 8f       	std	Y+25, r19	; 0x19
    1c10:	28 8f       	std	Y+24, r18	; 0x18
    1c12:	1d 8a       	std	Y+21, r1	; 0x15
    1c14:	d5 01       	movw	r26, r10
    1c16:	50 96       	adiw	r26, 0x10	; 16
    1c18:	8c 91       	ld	r24, X
    1c1a:	bd 89       	ldd	r27, Y+21	; 0x15
    1c1c:	b8 17       	cp	r27, r24
    1c1e:	08 f0       	brcs	.+2      	; 0x1c22 <_ZN4UTFT10rotateCharEhiiii+0xb0>
    1c20:	fb c0       	rjmp	.+502    	; 0x1e18 <_ZN4UTFT10rotateCharEhiiii+0x2a6>
    1c22:	41 2c       	mov	r4, r1
    1c24:	51 2c       	mov	r5, r1
    1c26:	f5 01       	movw	r30, r10
    1c28:	87 85       	ldd	r24, Z+15	; 0x0f
    1c2a:	86 95       	lsr	r24
    1c2c:	86 95       	lsr	r24
    1c2e:	86 95       	lsr	r24
    1c30:	28 2f       	mov	r18, r24
    1c32:	30 e0       	ldi	r19, 0x00	; 0
    1c34:	42 16       	cp	r4, r18
    1c36:	53 06       	cpc	r5, r19
    1c38:	0c f0       	brlt	.+2      	; 0x1c3c <_ZN4UTFT10rotateCharEhiiii+0xca>
    1c3a:	e4 c0       	rjmp	.+456    	; 0x1e04 <_ZN4UTFT10rotateCharEhiiii+0x292>
    1c3c:	05 84       	ldd	r0, Z+13	; 0x0d
    1c3e:	f6 85       	ldd	r31, Z+14	; 0x0e
    1c40:	e0 2d       	mov	r30, r0
    1c42:	88 8d       	ldd	r24, Y+24	; 0x18
    1c44:	99 8d       	ldd	r25, Y+25	; 0x19
    1c46:	84 0d       	add	r24, r4
    1c48:	95 1d       	adc	r25, r5
    1c4a:	e8 0f       	add	r30, r24
    1c4c:	f9 1f       	adc	r31, r25
    1c4e:	24 90       	lpm	r2, Z
    1c50:	31 2c       	mov	r3, r1
    1c52:	3a 8e       	std	Y+26, r3	; 0x1a
    1c54:	2b 8e       	std	Y+27, r2	; 0x1b
    1c56:	fa 8d       	ldd	r31, Y+26	; 0x1a
    1c58:	f8 30       	cpi	r31, 0x08	; 8
    1c5a:	08 f0       	brcs	.+2      	; 0x1c5e <_ZN4UTFT10rotateCharEhiiii+0xec>
    1c5c:	cf c0       	rjmp	.+414    	; 0x1dfc <_ZN4UTFT10rotateCharEhiiii+0x28a>
    1c5e:	2f 2e       	mov	r2, r31
    1c60:	31 2c       	mov	r3, r1
    1c62:	b2 01       	movw	r22, r4
    1c64:	66 0f       	add	r22, r22
    1c66:	77 1f       	adc	r23, r23
    1c68:	66 0f       	add	r22, r22
    1c6a:	77 1f       	adc	r23, r23
    1c6c:	66 0f       	add	r22, r22
    1c6e:	77 1f       	adc	r23, r23
    1c70:	62 0d       	add	r22, r2
    1c72:	73 1d       	adc	r23, r3
    1c74:	d5 01       	movw	r26, r10
    1c76:	1f 96       	adiw	r26, 0x0f	; 15
    1c78:	2c 91       	ld	r18, X
    1c7a:	ee 89       	ldd	r30, Y+22	; 0x16
    1c7c:	ff 89       	ldd	r31, Y+23	; 0x17
    1c7e:	2e 9f       	mul	r18, r30
    1c80:	c0 01       	movw	r24, r0
    1c82:	2f 9f       	mul	r18, r31
    1c84:	90 0d       	add	r25, r0
    1c86:	11 24       	eor	r1, r1
    1c88:	68 0f       	add	r22, r24
    1c8a:	79 1f       	adc	r23, r25
    1c8c:	07 2e       	mov	r0, r23
    1c8e:	00 0c       	add	r0, r0
    1c90:	88 0b       	sbc	r24, r24
    1c92:	99 0b       	sbc	r25, r25
    1c94:	0e 94 c8 10 	call	0x2190	; 0x2190 <__floatsisf>
    1c98:	69 83       	std	Y+1, r22	; 0x01
    1c9a:	7a 83       	std	Y+2, r23	; 0x02
    1c9c:	8b 83       	std	Y+3, r24	; 0x03
    1c9e:	9c 83       	std	Y+4, r25	; 0x04
    1ca0:	69 89       	ldd	r22, Y+17	; 0x11
    1ca2:	7a 89       	ldd	r23, Y+18	; 0x12
    1ca4:	8b 89       	ldd	r24, Y+19	; 0x13
    1ca6:	9c 89       	ldd	r25, Y+20	; 0x14
    1ca8:	0e 94 8b 10 	call	0x2116	; 0x2116 <cos>
    1cac:	6d 83       	std	Y+5, r22	; 0x05
    1cae:	7e 83       	std	Y+6, r23	; 0x06
    1cb0:	8f 83       	std	Y+7, r24	; 0x07
    1cb2:	98 87       	std	Y+8, r25	; 0x08
    1cb4:	9b 01       	movw	r18, r22
    1cb6:	ac 01       	movw	r20, r24
    1cb8:	69 81       	ldd	r22, Y+1	; 0x01
    1cba:	7a 81       	ldd	r23, Y+2	; 0x02
    1cbc:	8b 81       	ldd	r24, Y+3	; 0x03
    1cbe:	9c 81       	ldd	r25, Y+4	; 0x04
    1cc0:	0e 94 93 11 	call	0x2326	; 0x2326 <__mulsf3>
    1cc4:	6b 01       	movw	r12, r22
    1cc6:	7c 01       	movw	r14, r24
    1cc8:	fd 89       	ldd	r31, Y+21	; 0x15
    1cca:	6f 2f       	mov	r22, r31
    1ccc:	70 e0       	ldi	r23, 0x00	; 0
    1cce:	80 e0       	ldi	r24, 0x00	; 0
    1cd0:	90 e0       	ldi	r25, 0x00	; 0
    1cd2:	0e 94 c8 10 	call	0x2190	; 0x2190 <__floatsisf>
    1cd6:	69 87       	std	Y+9, r22	; 0x09
    1cd8:	7a 87       	std	Y+10, r23	; 0x0a
    1cda:	8b 87       	std	Y+11, r24	; 0x0b
    1cdc:	9c 87       	std	Y+12, r25	; 0x0c
    1cde:	69 89       	ldd	r22, Y+17	; 0x11
    1ce0:	7a 89       	ldd	r23, Y+18	; 0x12
    1ce2:	8b 89       	ldd	r24, Y+19	; 0x13
    1ce4:	9c 89       	ldd	r25, Y+20	; 0x14
    1ce6:	0e 94 00 12 	call	0x2400	; 0x2400 <sin>
    1cea:	6d 87       	std	Y+13, r22	; 0x0d
    1cec:	7e 87       	std	Y+14, r23	; 0x0e
    1cee:	8f 87       	std	Y+15, r24	; 0x0f
    1cf0:	98 8b       	std	Y+16, r25	; 0x10
    1cf2:	9b 01       	movw	r18, r22
    1cf4:	ac 01       	movw	r20, r24
    1cf6:	69 85       	ldd	r22, Y+9	; 0x09
    1cf8:	7a 85       	ldd	r23, Y+10	; 0x0a
    1cfa:	8b 85       	ldd	r24, Y+11	; 0x0b
    1cfc:	9c 85       	ldd	r25, Y+12	; 0x0c
    1cfe:	0e 94 93 11 	call	0x2326	; 0x2326 <__mulsf3>
    1d02:	9b 01       	movw	r18, r22
    1d04:	ac 01       	movw	r20, r24
    1d06:	c7 01       	movw	r24, r14
    1d08:	b6 01       	movw	r22, r12
    1d0a:	0e 94 1e 10 	call	0x203c	; 0x203c <__subsf3>
    1d0e:	6b 01       	movw	r12, r22
    1d10:	7c 01       	movw	r14, r24
    1d12:	b3 01       	movw	r22, r6
    1d14:	07 2c       	mov	r0, r7
    1d16:	00 0c       	add	r0, r0
    1d18:	88 0b       	sbc	r24, r24
    1d1a:	99 0b       	sbc	r25, r25
    1d1c:	0e 94 c8 10 	call	0x2190	; 0x2190 <__floatsisf>
    1d20:	a7 01       	movw	r20, r14
    1d22:	96 01       	movw	r18, r12
    1d24:	0e 94 1f 10 	call	0x203e	; 0x203e <__addsf3>
    1d28:	0e 94 90 10 	call	0x2120	; 0x2120 <__fixsfsi>
    1d2c:	6b 01       	movw	r12, r22
    1d2e:	7c 01       	movw	r14, r24
    1d30:	29 85       	ldd	r18, Y+9	; 0x09
    1d32:	3a 85       	ldd	r19, Y+10	; 0x0a
    1d34:	4b 85       	ldd	r20, Y+11	; 0x0b
    1d36:	5c 85       	ldd	r21, Y+12	; 0x0c
    1d38:	6d 81       	ldd	r22, Y+5	; 0x05
    1d3a:	7e 81       	ldd	r23, Y+6	; 0x06
    1d3c:	8f 81       	ldd	r24, Y+7	; 0x07
    1d3e:	98 85       	ldd	r25, Y+8	; 0x08
    1d40:	0e 94 93 11 	call	0x2326	; 0x2326 <__mulsf3>
    1d44:	6d 83       	std	Y+5, r22	; 0x05
    1d46:	7e 83       	std	Y+6, r23	; 0x06
    1d48:	8f 83       	std	Y+7, r24	; 0x07
    1d4a:	98 87       	std	Y+8, r25	; 0x08
    1d4c:	2d 85       	ldd	r18, Y+13	; 0x0d
    1d4e:	3e 85       	ldd	r19, Y+14	; 0x0e
    1d50:	4f 85       	ldd	r20, Y+15	; 0x0f
    1d52:	58 89       	ldd	r21, Y+16	; 0x10
    1d54:	69 81       	ldd	r22, Y+1	; 0x01
    1d56:	7a 81       	ldd	r23, Y+2	; 0x02
    1d58:	8b 81       	ldd	r24, Y+3	; 0x03
    1d5a:	9c 81       	ldd	r25, Y+4	; 0x04
    1d5c:	0e 94 93 11 	call	0x2326	; 0x2326 <__mulsf3>
    1d60:	9b 01       	movw	r18, r22
    1d62:	ac 01       	movw	r20, r24
    1d64:	6d 81       	ldd	r22, Y+5	; 0x05
    1d66:	7e 81       	ldd	r23, Y+6	; 0x06
    1d68:	8f 81       	ldd	r24, Y+7	; 0x07
    1d6a:	98 85       	ldd	r25, Y+8	; 0x08
    1d6c:	0e 94 1f 10 	call	0x203e	; 0x203e <__addsf3>
    1d70:	69 83       	std	Y+1, r22	; 0x01
    1d72:	7a 83       	std	Y+2, r23	; 0x02
    1d74:	8b 83       	std	Y+3, r24	; 0x03
    1d76:	9c 83       	std	Y+4, r25	; 0x04
    1d78:	b4 01       	movw	r22, r8
    1d7a:	09 2c       	mov	r0, r9
    1d7c:	00 0c       	add	r0, r0
    1d7e:	88 0b       	sbc	r24, r24
    1d80:	99 0b       	sbc	r25, r25
    1d82:	0e 94 c8 10 	call	0x2190	; 0x2190 <__floatsisf>
    1d86:	29 81       	ldd	r18, Y+1	; 0x01
    1d88:	3a 81       	ldd	r19, Y+2	; 0x02
    1d8a:	4b 81       	ldd	r20, Y+3	; 0x03
    1d8c:	5c 81       	ldd	r21, Y+4	; 0x04
    1d8e:	0e 94 1f 10 	call	0x203e	; 0x203e <__addsf3>
    1d92:	0e 94 90 10 	call	0x2120	; 0x2120 <__fixsfsi>
    1d96:	8b 01       	movw	r16, r22
    1d98:	0f 5f       	subi	r16, 0xFF	; 255
    1d9a:	1f 4f       	sbci	r17, 0xFF	; 255
    1d9c:	96 01       	movw	r18, r12
    1d9e:	2f 5f       	subi	r18, 0xFF	; 255
    1da0:	3f 4f       	sbci	r19, 0xFF	; 255
    1da2:	ab 01       	movw	r20, r22
    1da4:	b6 01       	movw	r22, r12
    1da6:	c5 01       	movw	r24, r10
    1da8:	0e 94 ed 0a 	call	0x15da	; 0x15da <_ZN4UTFT5setXYEjjjj>
    1dac:	27 e0       	ldi	r18, 0x07	; 7
    1dae:	30 e0       	ldi	r19, 0x00	; 0
    1db0:	22 19       	sub	r18, r2
    1db2:	33 09       	sbc	r19, r3
    1db4:	4b 8d       	ldd	r20, Y+27	; 0x1b
    1db6:	84 2f       	mov	r24, r20
    1db8:	90 e0       	ldi	r25, 0x00	; 0
    1dba:	02 c0       	rjmp	.+4      	; 0x1dc0 <_ZN4UTFT10rotateCharEhiiii+0x24e>
    1dbc:	95 95       	asr	r25
    1dbe:	87 95       	ror	r24
    1dc0:	2a 95       	dec	r18
    1dc2:	e2 f7       	brpl	.-8      	; 0x1dbc <_ZN4UTFT10rotateCharEhiiii+0x24a>
    1dc4:	80 ff       	sbrs	r24, 0
    1dc6:	0c c0       	rjmp	.+24     	; 0x1de0 <_ZN4UTFT10rotateCharEhiiii+0x26e>
    1dc8:	d5 01       	movw	r26, r10
    1dca:	6c 91       	ld	r22, X
    1dcc:	70 e0       	ldi	r23, 0x00	; 0
    1dce:	76 2f       	mov	r23, r22
    1dd0:	66 27       	eor	r22, r22
    1dd2:	11 96       	adiw	r26, 0x01	; 1
    1dd4:	8c 91       	ld	r24, X
    1dd6:	68 2b       	or	r22, r24
    1dd8:	c5 01       	movw	r24, r10
    1dda:	0e 94 25 0c 	call	0x184a	; 0x184a <_ZN4UTFT8setPixelEj>
    1dde:	0a c0       	rjmp	.+20     	; 0x1df4 <_ZN4UTFT10rotateCharEhiiii+0x282>
    1de0:	f5 01       	movw	r30, r10
    1de2:	62 81       	ldd	r22, Z+2	; 0x02
    1de4:	70 e0       	ldi	r23, 0x00	; 0
    1de6:	76 2f       	mov	r23, r22
    1de8:	66 27       	eor	r22, r22
    1dea:	83 81       	ldd	r24, Z+3	; 0x03
    1dec:	68 2b       	or	r22, r24
    1dee:	c5 01       	movw	r24, r10
    1df0:	0e 94 25 0c 	call	0x184a	; 0x184a <_ZN4UTFT8setPixelEj>
    1df4:	fa 8d       	ldd	r31, Y+26	; 0x1a
    1df6:	ff 5f       	subi	r31, 0xFF	; 255
    1df8:	fa 8f       	std	Y+26, r31	; 0x1a
    1dfa:	2d cf       	rjmp	.-422    	; 0x1c56 <_ZN4UTFT10rotateCharEhiiii+0xe4>
    1dfc:	2f ef       	ldi	r18, 0xFF	; 255
    1dfe:	42 1a       	sub	r4, r18
    1e00:	52 0a       	sbc	r5, r18
    1e02:	11 cf       	rjmp	.-478    	; 0x1c26 <_ZN4UTFT10rotateCharEhiiii+0xb4>
    1e04:	48 8d       	ldd	r20, Y+24	; 0x18
    1e06:	59 8d       	ldd	r21, Y+25	; 0x19
    1e08:	48 0f       	add	r20, r24
    1e0a:	51 1d       	adc	r21, r1
    1e0c:	59 8f       	std	Y+25, r21	; 0x19
    1e0e:	48 8f       	std	Y+24, r20	; 0x18
    1e10:	5d 89       	ldd	r21, Y+21	; 0x15
    1e12:	5f 5f       	subi	r21, 0xFF	; 255
    1e14:	5d 8b       	std	Y+21, r21	; 0x15
    1e16:	fe ce       	rjmp	.-516    	; 0x1c14 <_ZN4UTFT10rotateCharEhiiii+0xa2>
    1e18:	85 b3       	in	r24, 0x15	; 21
    1e1a:	82 60       	ori	r24, 0x02	; 2
    1e1c:	85 bb       	out	0x15, r24	; 21
    1e1e:	6b 96       	adiw	r28, 0x1b	; 27
    1e20:	0f b6       	in	r0, 0x3f	; 63
    1e22:	f8 94       	cli
    1e24:	de bf       	out	0x3e, r29	; 62
    1e26:	0f be       	out	0x3f, r0	; 63
    1e28:	cd bf       	out	0x3d, r28	; 61
    1e2a:	df 91       	pop	r29
    1e2c:	cf 91       	pop	r28
    1e2e:	1f 91       	pop	r17
    1e30:	0f 91       	pop	r16
    1e32:	ff 90       	pop	r15
    1e34:	ef 90       	pop	r14
    1e36:	df 90       	pop	r13
    1e38:	cf 90       	pop	r12
    1e3a:	bf 90       	pop	r11
    1e3c:	af 90       	pop	r10
    1e3e:	9f 90       	pop	r9
    1e40:	8f 90       	pop	r8
    1e42:	7f 90       	pop	r7
    1e44:	6f 90       	pop	r6
    1e46:	5f 90       	pop	r5
    1e48:	4f 90       	pop	r4
    1e4a:	3f 90       	pop	r3
    1e4c:	2f 90       	pop	r2
    1e4e:	08 95       	ret

00001e50 <_ZN4UTFT5printEPKciii>:
    1e50:	2f 92       	push	r2
    1e52:	3f 92       	push	r3
    1e54:	4f 92       	push	r4
    1e56:	5f 92       	push	r5
    1e58:	6f 92       	push	r6
    1e5a:	7f 92       	push	r7
    1e5c:	8f 92       	push	r8
    1e5e:	9f 92       	push	r9
    1e60:	af 92       	push	r10
    1e62:	bf 92       	push	r11
    1e64:	cf 92       	push	r12
    1e66:	df 92       	push	r13
    1e68:	ef 92       	push	r14
    1e6a:	ff 92       	push	r15
    1e6c:	0f 93       	push	r16
    1e6e:	1f 93       	push	r17
    1e70:	cf 93       	push	r28
    1e72:	df 93       	push	r29
    1e74:	ec 01       	movw	r28, r24
    1e76:	fb 01       	movw	r30, r22
    1e78:	5a 01       	movw	r10, r20
    1e7a:	29 01       	movw	r4, r18
    1e7c:	68 01       	movw	r12, r16
    1e7e:	db 01       	movw	r26, r22
    1e80:	0d 90       	ld	r0, X+
    1e82:	00 20       	and	r0, r0
    1e84:	e9 f7       	brne	.-6      	; 0x1e80 <_ZN4UTFT5printEPKciii+0x30>
    1e86:	11 97       	sbiw	r26, 0x01	; 1
    1e88:	a6 1b       	sub	r26, r22
    1e8a:	b7 0b       	sbc	r27, r23
    1e8c:	4d 01       	movw	r8, r26
    1e8e:	8c 81       	ldd	r24, Y+4	; 0x04
    1e90:	81 11       	cpse	r24, r1
    1e92:	3e c0       	rjmp	.+124    	; 0x1f10 <_ZN4UTFT5printEPKciii+0xc0>
    1e94:	4f 30       	cpi	r20, 0x0F	; 15
    1e96:	57 42       	sbci	r21, 0x27	; 39
    1e98:	81 f4       	brne	.+32     	; 0x1eba <_ZN4UTFT5printEPKciii+0x6a>
    1e9a:	4d 81       	ldd	r20, Y+5	; 0x05
    1e9c:	5e 81       	ldd	r21, Y+6	; 0x06
    1e9e:	6f 81       	ldd	r22, Y+7	; 0x07
    1ea0:	78 85       	ldd	r23, Y+8	; 0x08
    1ea2:	2f 85       	ldd	r18, Y+15	; 0x0f
    1ea4:	2a 9f       	mul	r18, r26
    1ea6:	c0 01       	movw	r24, r0
    1ea8:	2b 9f       	mul	r18, r27
    1eaa:	90 0d       	add	r25, r0
    1eac:	11 24       	eor	r1, r1
    1eae:	48 1b       	sub	r20, r24
    1eb0:	59 0b       	sbc	r21, r25
    1eb2:	5a 01       	movw	r10, r20
    1eb4:	1f ef       	ldi	r17, 0xFF	; 255
    1eb6:	a1 1a       	sub	r10, r17
    1eb8:	b1 0a       	sbc	r11, r17
    1eba:	2e e0       	ldi	r18, 0x0E	; 14
    1ebc:	a2 16       	cp	r10, r18
    1ebe:	27 e2       	ldi	r18, 0x27	; 39
    1ec0:	b2 06       	cpc	r11, r18
    1ec2:	09 f0       	breq	.+2      	; 0x1ec6 <_ZN4UTFT5printEPKciii+0x76>
    1ec4:	61 c0       	rjmp	.+194    	; 0x1f88 <_ZN4UTFT5printEPKciii+0x138>
    1ec6:	4d 81       	ldd	r20, Y+5	; 0x05
    1ec8:	5e 81       	ldd	r21, Y+6	; 0x06
    1eca:	6f 81       	ldd	r22, Y+7	; 0x07
    1ecc:	78 85       	ldd	r23, Y+8	; 0x08
    1ece:	4f 5f       	subi	r20, 0xFF	; 255
    1ed0:	5f 4f       	sbci	r21, 0xFF	; 255
    1ed2:	6f 4f       	sbci	r22, 0xFF	; 255
    1ed4:	7f 4f       	sbci	r23, 0xFF	; 255
    1ed6:	2f 85       	ldd	r18, Y+15	; 0x0f
    1ed8:	2a 9f       	mul	r18, r26
    1eda:	c0 01       	movw	r24, r0
    1edc:	2b 9f       	mul	r18, r27
    1ede:	90 0d       	add	r25, r0
    1ee0:	11 24       	eor	r1, r1
    1ee2:	09 2e       	mov	r0, r25
    1ee4:	00 0c       	add	r0, r0
    1ee6:	aa 0b       	sbc	r26, r26
    1ee8:	bb 0b       	sbc	r27, r27
    1eea:	8a 01       	movw	r16, r20
    1eec:	9b 01       	movw	r18, r22
    1eee:	08 1b       	sub	r16, r24
    1ef0:	19 0b       	sbc	r17, r25
    1ef2:	2a 0b       	sbc	r18, r26
    1ef4:	3b 0b       	sbc	r19, r27
    1ef6:	b9 01       	movw	r22, r18
    1ef8:	a8 01       	movw	r20, r16
    1efa:	22 f4       	brpl	.+8      	; 0x1f04 <_ZN4UTFT5printEPKciii+0xb4>
    1efc:	4f 5f       	subi	r20, 0xFF	; 255
    1efe:	5f 4f       	sbci	r21, 0xFF	; 255
    1f00:	6f 4f       	sbci	r22, 0xFF	; 255
    1f02:	7f 4f       	sbci	r23, 0xFF	; 255
    1f04:	75 95       	asr	r23
    1f06:	67 95       	ror	r22
    1f08:	57 95       	ror	r21
    1f0a:	47 95       	ror	r20
    1f0c:	5a 01       	movw	r10, r20
    1f0e:	3c c0       	rjmp	.+120    	; 0x1f88 <_ZN4UTFT5printEPKciii+0x138>
    1f10:	4f 30       	cpi	r20, 0x0F	; 15
    1f12:	57 42       	sbci	r21, 0x27	; 39
    1f14:	81 f4       	brne	.+32     	; 0x1f36 <_ZN4UTFT5printEPKciii+0xe6>
    1f16:	49 85       	ldd	r20, Y+9	; 0x09
    1f18:	5a 85       	ldd	r21, Y+10	; 0x0a
    1f1a:	6b 85       	ldd	r22, Y+11	; 0x0b
    1f1c:	7c 85       	ldd	r23, Y+12	; 0x0c
    1f1e:	2f 85       	ldd	r18, Y+15	; 0x0f
    1f20:	2a 9f       	mul	r18, r26
    1f22:	c0 01       	movw	r24, r0
    1f24:	2b 9f       	mul	r18, r27
    1f26:	90 0d       	add	r25, r0
    1f28:	11 24       	eor	r1, r1
    1f2a:	48 1b       	sub	r20, r24
    1f2c:	59 0b       	sbc	r21, r25
    1f2e:	5a 01       	movw	r10, r20
    1f30:	2f ef       	ldi	r18, 0xFF	; 255
    1f32:	a2 1a       	sub	r10, r18
    1f34:	b2 0a       	sbc	r11, r18
    1f36:	3e e0       	ldi	r19, 0x0E	; 14
    1f38:	a3 16       	cp	r10, r19
    1f3a:	37 e2       	ldi	r19, 0x27	; 39
    1f3c:	b3 06       	cpc	r11, r19
    1f3e:	21 f5       	brne	.+72     	; 0x1f88 <_ZN4UTFT5printEPKciii+0x138>
    1f40:	49 85       	ldd	r20, Y+9	; 0x09
    1f42:	5a 85       	ldd	r21, Y+10	; 0x0a
    1f44:	6b 85       	ldd	r22, Y+11	; 0x0b
    1f46:	7c 85       	ldd	r23, Y+12	; 0x0c
    1f48:	4f 5f       	subi	r20, 0xFF	; 255
    1f4a:	5f 4f       	sbci	r21, 0xFF	; 255
    1f4c:	6f 4f       	sbci	r22, 0xFF	; 255
    1f4e:	7f 4f       	sbci	r23, 0xFF	; 255
    1f50:	2f 85       	ldd	r18, Y+15	; 0x0f
    1f52:	2a 9f       	mul	r18, r26
    1f54:	c0 01       	movw	r24, r0
    1f56:	2b 9f       	mul	r18, r27
    1f58:	90 0d       	add	r25, r0
    1f5a:	11 24       	eor	r1, r1
    1f5c:	09 2e       	mov	r0, r25
    1f5e:	00 0c       	add	r0, r0
    1f60:	aa 0b       	sbc	r26, r26
    1f62:	bb 0b       	sbc	r27, r27
    1f64:	8a 01       	movw	r16, r20
    1f66:	9b 01       	movw	r18, r22
    1f68:	08 1b       	sub	r16, r24
    1f6a:	19 0b       	sbc	r17, r25
    1f6c:	2a 0b       	sbc	r18, r26
    1f6e:	3b 0b       	sbc	r19, r27
    1f70:	b9 01       	movw	r22, r18
    1f72:	a8 01       	movw	r20, r16
    1f74:	22 f4       	brpl	.+8      	; 0x1f7e <_ZN4UTFT5printEPKciii+0x12e>
    1f76:	4f 5f       	subi	r20, 0xFF	; 255
    1f78:	5f 4f       	sbci	r21, 0xFF	; 255
    1f7a:	6f 4f       	sbci	r22, 0xFF	; 255
    1f7c:	7f 4f       	sbci	r23, 0xFF	; 255
    1f7e:	75 95       	asr	r23
    1f80:	67 95       	ror	r22
    1f82:	57 95       	ror	r21
    1f84:	47 95       	ror	r20
    1f86:	5a 01       	movw	r10, r20
    1f88:	61 2c       	mov	r6, r1
    1f8a:	71 2c       	mov	r7, r1
    1f8c:	68 14       	cp	r6, r8
    1f8e:	79 04       	cpc	r7, r9
    1f90:	3c f5       	brge	.+78     	; 0x1fe0 <_ZN4UTFT5printEPKciii+0x190>
    1f92:	c1 14       	cp	r12, r1
    1f94:	d1 04       	cpc	r13, r1
    1f96:	99 f4       	brne	.+38     	; 0x1fbe <_ZN4UTFT5printEPKciii+0x16e>
    1f98:	8f 85       	ldd	r24, Y+15	; 0x0f
    1f9a:	86 9d       	mul	r24, r6
    1f9c:	a0 01       	movw	r20, r0
    1f9e:	87 9d       	mul	r24, r7
    1fa0:	50 0d       	add	r21, r0
    1fa2:	11 24       	eor	r1, r1
    1fa4:	4a 0d       	add	r20, r10
    1fa6:	5b 1d       	adc	r21, r11
    1fa8:	1f 01       	movw	r2, r30
    1faa:	1f ef       	ldi	r17, 0xFF	; 255
    1fac:	21 1a       	sub	r2, r17
    1fae:	31 0a       	sbc	r3, r17
    1fb0:	60 81       	ld	r22, Z
    1fb2:	92 01       	movw	r18, r4
    1fb4:	ce 01       	movw	r24, r28
    1fb6:	0e 94 c0 0c 	call	0x1980	; 0x1980 <_ZN4UTFT9printCharEhii>
    1fba:	f1 01       	movw	r30, r2
    1fbc:	0d c0       	rjmp	.+26     	; 0x1fd8 <_ZN4UTFT5printEPKciii+0x188>
    1fbe:	1f 01       	movw	r2, r30
    1fc0:	2f ef       	ldi	r18, 0xFF	; 255
    1fc2:	22 1a       	sub	r2, r18
    1fc4:	32 0a       	sbc	r3, r18
    1fc6:	60 81       	ld	r22, Z
    1fc8:	76 01       	movw	r14, r12
    1fca:	83 01       	movw	r16, r6
    1fcc:	92 01       	movw	r18, r4
    1fce:	a5 01       	movw	r20, r10
    1fd0:	ce 01       	movw	r24, r28
    1fd2:	0e 94 b9 0d 	call	0x1b72	; 0x1b72 <_ZN4UTFT10rotateCharEhiiii>
    1fd6:	f1 01       	movw	r30, r2
    1fd8:	3f ef       	ldi	r19, 0xFF	; 255
    1fda:	63 1a       	sub	r6, r19
    1fdc:	73 0a       	sbc	r7, r19
    1fde:	d6 cf       	rjmp	.-84     	; 0x1f8c <_ZN4UTFT5printEPKciii+0x13c>
    1fe0:	df 91       	pop	r29
    1fe2:	cf 91       	pop	r28
    1fe4:	1f 91       	pop	r17
    1fe6:	0f 91       	pop	r16
    1fe8:	ff 90       	pop	r15
    1fea:	ef 90       	pop	r14
    1fec:	df 90       	pop	r13
    1fee:	cf 90       	pop	r12
    1ff0:	bf 90       	pop	r11
    1ff2:	af 90       	pop	r10
    1ff4:	9f 90       	pop	r9
    1ff6:	8f 90       	pop	r8
    1ff8:	7f 90       	pop	r7
    1ffa:	6f 90       	pop	r6
    1ffc:	5f 90       	pop	r5
    1ffe:	4f 90       	pop	r4
    2000:	3f 90       	pop	r3
    2002:	2f 90       	pop	r2
    2004:	08 95       	ret

00002006 <_ZN4UTFT7setFontEPKh>:

void UTFT::setFont(const uint8_t* font)
{
    2006:	dc 01       	movw	r26, r24
	cfont.font=font;
    2008:	1e 96       	adiw	r26, 0x0e	; 14
    200a:	7c 93       	st	X, r23
    200c:	6e 93       	st	-X, r22
    200e:	1d 97       	sbiw	r26, 0x0d	; 13
	cfont.x_size=fontbyte(0);
    2010:	fb 01       	movw	r30, r22
    2012:	84 91       	lpm	r24, Z
    2014:	1f 96       	adiw	r26, 0x0f	; 15
    2016:	8c 93       	st	X, r24
    2018:	1f 97       	sbiw	r26, 0x0f	; 15
	cfont.y_size=fontbyte(1);
    201a:	31 96       	adiw	r30, 0x01	; 1
    201c:	e4 91       	lpm	r30, Z
    201e:	50 96       	adiw	r26, 0x10	; 16
    2020:	ec 93       	st	X, r30
    2022:	50 97       	sbiw	r26, 0x10	; 16
	cfont.offset=fontbyte(2);
    2024:	fb 01       	movw	r30, r22
    2026:	32 96       	adiw	r30, 0x02	; 2
    2028:	e4 91       	lpm	r30, Z
    202a:	51 96       	adiw	r26, 0x11	; 17
    202c:	ec 93       	st	X, r30
    202e:	51 97       	sbiw	r26, 0x11	; 17
	cfont.numchars=fontbyte(3);
    2030:	fb 01       	movw	r30, r22
    2032:	33 96       	adiw	r30, 0x03	; 3
    2034:	64 91       	lpm	r22, Z
    2036:	52 96       	adiw	r26, 0x12	; 18
    2038:	6c 93       	st	X, r22
    203a:	08 95       	ret

0000203c <__subsf3>:
    203c:	50 58       	subi	r21, 0x80	; 128

0000203e <__addsf3>:
    203e:	bb 27       	eor	r27, r27
    2040:	aa 27       	eor	r26, r26
    2042:	0e 94 36 10 	call	0x206c	; 0x206c <__addsf3x>
    2046:	0c 94 45 11 	jmp	0x228a	; 0x228a <__fp_round>
    204a:	0e 94 0c 11 	call	0x2218	; 0x2218 <__fp_pscA>
    204e:	38 f0       	brcs	.+14     	; 0x205e <__addsf3+0x20>
    2050:	0e 94 13 11 	call	0x2226	; 0x2226 <__fp_pscB>
    2054:	20 f0       	brcs	.+8      	; 0x205e <__addsf3+0x20>
    2056:	39 f4       	brne	.+14     	; 0x2066 <__addsf3+0x28>
    2058:	9f 3f       	cpi	r25, 0xFF	; 255
    205a:	19 f4       	brne	.+6      	; 0x2062 <__addsf3+0x24>
    205c:	26 f4       	brtc	.+8      	; 0x2066 <__addsf3+0x28>
    205e:	0c 94 09 11 	jmp	0x2212	; 0x2212 <__fp_nan>
    2062:	0e f4       	brtc	.+2      	; 0x2066 <__addsf3+0x28>
    2064:	e0 95       	com	r30
    2066:	e7 fb       	bst	r30, 7
    2068:	0c 94 03 11 	jmp	0x2206	; 0x2206 <__fp_inf>

0000206c <__addsf3x>:
    206c:	e9 2f       	mov	r30, r25
    206e:	0e 94 6a 11 	call	0x22d4	; 0x22d4 <__fp_split3>
    2072:	58 f3       	brcs	.-42     	; 0x204a <__addsf3+0xc>
    2074:	ba 17       	cp	r27, r26
    2076:	62 07       	cpc	r22, r18
    2078:	73 07       	cpc	r23, r19
    207a:	84 07       	cpc	r24, r20
    207c:	95 07       	cpc	r25, r21
    207e:	20 f0       	brcs	.+8      	; 0x2088 <__addsf3x+0x1c>
    2080:	79 f4       	brne	.+30     	; 0x20a0 <__addsf3x+0x34>
    2082:	a6 f5       	brtc	.+104    	; 0x20ec <__addsf3x+0x80>
    2084:	0c 94 8c 11 	jmp	0x2318	; 0x2318 <__fp_zero>
    2088:	0e f4       	brtc	.+2      	; 0x208c <__addsf3x+0x20>
    208a:	e0 95       	com	r30
    208c:	0b 2e       	mov	r0, r27
    208e:	ba 2f       	mov	r27, r26
    2090:	a0 2d       	mov	r26, r0
    2092:	0b 01       	movw	r0, r22
    2094:	b9 01       	movw	r22, r18
    2096:	90 01       	movw	r18, r0
    2098:	0c 01       	movw	r0, r24
    209a:	ca 01       	movw	r24, r20
    209c:	a0 01       	movw	r20, r0
    209e:	11 24       	eor	r1, r1
    20a0:	ff 27       	eor	r31, r31
    20a2:	59 1b       	sub	r21, r25
    20a4:	99 f0       	breq	.+38     	; 0x20cc <__addsf3x+0x60>
    20a6:	59 3f       	cpi	r21, 0xF9	; 249
    20a8:	50 f4       	brcc	.+20     	; 0x20be <__addsf3x+0x52>
    20aa:	50 3e       	cpi	r21, 0xE0	; 224
    20ac:	68 f1       	brcs	.+90     	; 0x2108 <__addsf3x+0x9c>
    20ae:	1a 16       	cp	r1, r26
    20b0:	f0 40       	sbci	r31, 0x00	; 0
    20b2:	a2 2f       	mov	r26, r18
    20b4:	23 2f       	mov	r18, r19
    20b6:	34 2f       	mov	r19, r20
    20b8:	44 27       	eor	r20, r20
    20ba:	58 5f       	subi	r21, 0xF8	; 248
    20bc:	f3 cf       	rjmp	.-26     	; 0x20a4 <__addsf3x+0x38>
    20be:	46 95       	lsr	r20
    20c0:	37 95       	ror	r19
    20c2:	27 95       	ror	r18
    20c4:	a7 95       	ror	r26
    20c6:	f0 40       	sbci	r31, 0x00	; 0
    20c8:	53 95       	inc	r21
    20ca:	c9 f7       	brne	.-14     	; 0x20be <__addsf3x+0x52>
    20cc:	7e f4       	brtc	.+30     	; 0x20ec <__addsf3x+0x80>
    20ce:	1f 16       	cp	r1, r31
    20d0:	ba 0b       	sbc	r27, r26
    20d2:	62 0b       	sbc	r22, r18
    20d4:	73 0b       	sbc	r23, r19
    20d6:	84 0b       	sbc	r24, r20
    20d8:	ba f0       	brmi	.+46     	; 0x2108 <__addsf3x+0x9c>
    20da:	91 50       	subi	r25, 0x01	; 1
    20dc:	a1 f0       	breq	.+40     	; 0x2106 <__addsf3x+0x9a>
    20de:	ff 0f       	add	r31, r31
    20e0:	bb 1f       	adc	r27, r27
    20e2:	66 1f       	adc	r22, r22
    20e4:	77 1f       	adc	r23, r23
    20e6:	88 1f       	adc	r24, r24
    20e8:	c2 f7       	brpl	.-16     	; 0x20da <__addsf3x+0x6e>
    20ea:	0e c0       	rjmp	.+28     	; 0x2108 <__addsf3x+0x9c>
    20ec:	ba 0f       	add	r27, r26
    20ee:	62 1f       	adc	r22, r18
    20f0:	73 1f       	adc	r23, r19
    20f2:	84 1f       	adc	r24, r20
    20f4:	48 f4       	brcc	.+18     	; 0x2108 <__addsf3x+0x9c>
    20f6:	87 95       	ror	r24
    20f8:	77 95       	ror	r23
    20fa:	67 95       	ror	r22
    20fc:	b7 95       	ror	r27
    20fe:	f7 95       	ror	r31
    2100:	9e 3f       	cpi	r25, 0xFE	; 254
    2102:	08 f0       	brcs	.+2      	; 0x2106 <__addsf3x+0x9a>
    2104:	b0 cf       	rjmp	.-160    	; 0x2066 <__addsf3+0x28>
    2106:	93 95       	inc	r25
    2108:	88 0f       	add	r24, r24
    210a:	08 f0       	brcs	.+2      	; 0x210e <__addsf3x+0xa2>
    210c:	99 27       	eor	r25, r25
    210e:	ee 0f       	add	r30, r30
    2110:	97 95       	ror	r25
    2112:	87 95       	ror	r24
    2114:	08 95       	ret

00002116 <cos>:
    2116:	0e 94 1c 11 	call	0x2238	; 0x2238 <__fp_rempio2>
    211a:	e3 95       	inc	r30
    211c:	0c 94 56 11 	jmp	0x22ac	; 0x22ac <__fp_sinus>

00002120 <__fixsfsi>:
    2120:	0e 94 97 10 	call	0x212e	; 0x212e <__fixunssfsi>
    2124:	68 94       	set
    2126:	b1 11       	cpse	r27, r1
    2128:	0c 94 8d 11 	jmp	0x231a	; 0x231a <__fp_szero>
    212c:	08 95       	ret

0000212e <__fixunssfsi>:
    212e:	0e 94 72 11 	call	0x22e4	; 0x22e4 <__fp_splitA>
    2132:	88 f0       	brcs	.+34     	; 0x2156 <__fixunssfsi+0x28>
    2134:	9f 57       	subi	r25, 0x7F	; 127
    2136:	98 f0       	brcs	.+38     	; 0x215e <__fixunssfsi+0x30>
    2138:	b9 2f       	mov	r27, r25
    213a:	99 27       	eor	r25, r25
    213c:	b7 51       	subi	r27, 0x17	; 23
    213e:	b0 f0       	brcs	.+44     	; 0x216c <__fixunssfsi+0x3e>
    2140:	e1 f0       	breq	.+56     	; 0x217a <__fixunssfsi+0x4c>
    2142:	66 0f       	add	r22, r22
    2144:	77 1f       	adc	r23, r23
    2146:	88 1f       	adc	r24, r24
    2148:	99 1f       	adc	r25, r25
    214a:	1a f0       	brmi	.+6      	; 0x2152 <__fixunssfsi+0x24>
    214c:	ba 95       	dec	r27
    214e:	c9 f7       	brne	.-14     	; 0x2142 <__fixunssfsi+0x14>
    2150:	14 c0       	rjmp	.+40     	; 0x217a <__fixunssfsi+0x4c>
    2152:	b1 30       	cpi	r27, 0x01	; 1
    2154:	91 f0       	breq	.+36     	; 0x217a <__fixunssfsi+0x4c>
    2156:	0e 94 8c 11 	call	0x2318	; 0x2318 <__fp_zero>
    215a:	b1 e0       	ldi	r27, 0x01	; 1
    215c:	08 95       	ret
    215e:	0c 94 8c 11 	jmp	0x2318	; 0x2318 <__fp_zero>
    2162:	67 2f       	mov	r22, r23
    2164:	78 2f       	mov	r23, r24
    2166:	88 27       	eor	r24, r24
    2168:	b8 5f       	subi	r27, 0xF8	; 248
    216a:	39 f0       	breq	.+14     	; 0x217a <__fixunssfsi+0x4c>
    216c:	b9 3f       	cpi	r27, 0xF9	; 249
    216e:	cc f3       	brlt	.-14     	; 0x2162 <__fixunssfsi+0x34>
    2170:	86 95       	lsr	r24
    2172:	77 95       	ror	r23
    2174:	67 95       	ror	r22
    2176:	b3 95       	inc	r27
    2178:	d9 f7       	brne	.-10     	; 0x2170 <__fixunssfsi+0x42>
    217a:	3e f4       	brtc	.+14     	; 0x218a <__fixunssfsi+0x5c>
    217c:	90 95       	com	r25
    217e:	80 95       	com	r24
    2180:	70 95       	com	r23
    2182:	61 95       	neg	r22
    2184:	7f 4f       	sbci	r23, 0xFF	; 255
    2186:	8f 4f       	sbci	r24, 0xFF	; 255
    2188:	9f 4f       	sbci	r25, 0xFF	; 255
    218a:	08 95       	ret

0000218c <__floatunsisf>:
    218c:	e8 94       	clt
    218e:	09 c0       	rjmp	.+18     	; 0x21a2 <__floatsisf+0x12>

00002190 <__floatsisf>:
    2190:	97 fb       	bst	r25, 7
    2192:	3e f4       	brtc	.+14     	; 0x21a2 <__floatsisf+0x12>
    2194:	90 95       	com	r25
    2196:	80 95       	com	r24
    2198:	70 95       	com	r23
    219a:	61 95       	neg	r22
    219c:	7f 4f       	sbci	r23, 0xFF	; 255
    219e:	8f 4f       	sbci	r24, 0xFF	; 255
    21a0:	9f 4f       	sbci	r25, 0xFF	; 255
    21a2:	99 23       	and	r25, r25
    21a4:	a9 f0       	breq	.+42     	; 0x21d0 <__floatsisf+0x40>
    21a6:	f9 2f       	mov	r31, r25
    21a8:	96 e9       	ldi	r25, 0x96	; 150
    21aa:	bb 27       	eor	r27, r27
    21ac:	93 95       	inc	r25
    21ae:	f6 95       	lsr	r31
    21b0:	87 95       	ror	r24
    21b2:	77 95       	ror	r23
    21b4:	67 95       	ror	r22
    21b6:	b7 95       	ror	r27
    21b8:	f1 11       	cpse	r31, r1
    21ba:	f8 cf       	rjmp	.-16     	; 0x21ac <__floatsisf+0x1c>
    21bc:	fa f4       	brpl	.+62     	; 0x21fc <__floatsisf+0x6c>
    21be:	bb 0f       	add	r27, r27
    21c0:	11 f4       	brne	.+4      	; 0x21c6 <__floatsisf+0x36>
    21c2:	60 ff       	sbrs	r22, 0
    21c4:	1b c0       	rjmp	.+54     	; 0x21fc <__floatsisf+0x6c>
    21c6:	6f 5f       	subi	r22, 0xFF	; 255
    21c8:	7f 4f       	sbci	r23, 0xFF	; 255
    21ca:	8f 4f       	sbci	r24, 0xFF	; 255
    21cc:	9f 4f       	sbci	r25, 0xFF	; 255
    21ce:	16 c0       	rjmp	.+44     	; 0x21fc <__floatsisf+0x6c>
    21d0:	88 23       	and	r24, r24
    21d2:	11 f0       	breq	.+4      	; 0x21d8 <__floatsisf+0x48>
    21d4:	96 e9       	ldi	r25, 0x96	; 150
    21d6:	11 c0       	rjmp	.+34     	; 0x21fa <__floatsisf+0x6a>
    21d8:	77 23       	and	r23, r23
    21da:	21 f0       	breq	.+8      	; 0x21e4 <__floatsisf+0x54>
    21dc:	9e e8       	ldi	r25, 0x8E	; 142
    21de:	87 2f       	mov	r24, r23
    21e0:	76 2f       	mov	r23, r22
    21e2:	05 c0       	rjmp	.+10     	; 0x21ee <__floatsisf+0x5e>
    21e4:	66 23       	and	r22, r22
    21e6:	71 f0       	breq	.+28     	; 0x2204 <__floatsisf+0x74>
    21e8:	96 e8       	ldi	r25, 0x86	; 134
    21ea:	86 2f       	mov	r24, r22
    21ec:	70 e0       	ldi	r23, 0x00	; 0
    21ee:	60 e0       	ldi	r22, 0x00	; 0
    21f0:	2a f0       	brmi	.+10     	; 0x21fc <__floatsisf+0x6c>
    21f2:	9a 95       	dec	r25
    21f4:	66 0f       	add	r22, r22
    21f6:	77 1f       	adc	r23, r23
    21f8:	88 1f       	adc	r24, r24
    21fa:	da f7       	brpl	.-10     	; 0x21f2 <__floatsisf+0x62>
    21fc:	88 0f       	add	r24, r24
    21fe:	96 95       	lsr	r25
    2200:	87 95       	ror	r24
    2202:	97 f9       	bld	r25, 7
    2204:	08 95       	ret

00002206 <__fp_inf>:
    2206:	97 f9       	bld	r25, 7
    2208:	9f 67       	ori	r25, 0x7F	; 127
    220a:	80 e8       	ldi	r24, 0x80	; 128
    220c:	70 e0       	ldi	r23, 0x00	; 0
    220e:	60 e0       	ldi	r22, 0x00	; 0
    2210:	08 95       	ret

00002212 <__fp_nan>:
    2212:	9f ef       	ldi	r25, 0xFF	; 255
    2214:	80 ec       	ldi	r24, 0xC0	; 192
    2216:	08 95       	ret

00002218 <__fp_pscA>:
    2218:	00 24       	eor	r0, r0
    221a:	0a 94       	dec	r0
    221c:	16 16       	cp	r1, r22
    221e:	17 06       	cpc	r1, r23
    2220:	18 06       	cpc	r1, r24
    2222:	09 06       	cpc	r0, r25
    2224:	08 95       	ret

00002226 <__fp_pscB>:
    2226:	00 24       	eor	r0, r0
    2228:	0a 94       	dec	r0
    222a:	12 16       	cp	r1, r18
    222c:	13 06       	cpc	r1, r19
    222e:	14 06       	cpc	r1, r20
    2230:	05 06       	cpc	r0, r21
    2232:	08 95       	ret
    2234:	0c 94 09 11 	jmp	0x2212	; 0x2212 <__fp_nan>

00002238 <__fp_rempio2>:
    2238:	0e 94 72 11 	call	0x22e4	; 0x22e4 <__fp_splitA>
    223c:	d8 f3       	brcs	.-10     	; 0x2234 <__fp_pscB+0xe>
    223e:	e8 94       	clt
    2240:	e0 e0       	ldi	r30, 0x00	; 0
    2242:	bb 27       	eor	r27, r27
    2244:	9f 57       	subi	r25, 0x7F	; 127
    2246:	f0 f0       	brcs	.+60     	; 0x2284 <__fp_rempio2+0x4c>
    2248:	2a ed       	ldi	r18, 0xDA	; 218
    224a:	3f e0       	ldi	r19, 0x0F	; 15
    224c:	49 ec       	ldi	r20, 0xC9	; 201
    224e:	06 c0       	rjmp	.+12     	; 0x225c <__fp_rempio2+0x24>
    2250:	ee 0f       	add	r30, r30
    2252:	bb 0f       	add	r27, r27
    2254:	66 1f       	adc	r22, r22
    2256:	77 1f       	adc	r23, r23
    2258:	88 1f       	adc	r24, r24
    225a:	28 f0       	brcs	.+10     	; 0x2266 <__fp_rempio2+0x2e>
    225c:	b2 3a       	cpi	r27, 0xA2	; 162
    225e:	62 07       	cpc	r22, r18
    2260:	73 07       	cpc	r23, r19
    2262:	84 07       	cpc	r24, r20
    2264:	28 f0       	brcs	.+10     	; 0x2270 <__fp_rempio2+0x38>
    2266:	b2 5a       	subi	r27, 0xA2	; 162
    2268:	62 0b       	sbc	r22, r18
    226a:	73 0b       	sbc	r23, r19
    226c:	84 0b       	sbc	r24, r20
    226e:	e3 95       	inc	r30
    2270:	9a 95       	dec	r25
    2272:	72 f7       	brpl	.-36     	; 0x2250 <__fp_rempio2+0x18>
    2274:	80 38       	cpi	r24, 0x80	; 128
    2276:	30 f4       	brcc	.+12     	; 0x2284 <__fp_rempio2+0x4c>
    2278:	9a 95       	dec	r25
    227a:	bb 0f       	add	r27, r27
    227c:	66 1f       	adc	r22, r22
    227e:	77 1f       	adc	r23, r23
    2280:	88 1f       	adc	r24, r24
    2282:	d2 f7       	brpl	.-12     	; 0x2278 <__fp_rempio2+0x40>
    2284:	90 48       	sbci	r25, 0x80	; 128
    2286:	0c 94 0a 12 	jmp	0x2414	; 0x2414 <__fp_mpack_finite>

0000228a <__fp_round>:
    228a:	09 2e       	mov	r0, r25
    228c:	03 94       	inc	r0
    228e:	00 0c       	add	r0, r0
    2290:	11 f4       	brne	.+4      	; 0x2296 <__fp_round+0xc>
    2292:	88 23       	and	r24, r24
    2294:	52 f0       	brmi	.+20     	; 0x22aa <__fp_round+0x20>
    2296:	bb 0f       	add	r27, r27
    2298:	40 f4       	brcc	.+16     	; 0x22aa <__fp_round+0x20>
    229a:	bf 2b       	or	r27, r31
    229c:	11 f4       	brne	.+4      	; 0x22a2 <__fp_round+0x18>
    229e:	60 ff       	sbrs	r22, 0
    22a0:	04 c0       	rjmp	.+8      	; 0x22aa <__fp_round+0x20>
    22a2:	6f 5f       	subi	r22, 0xFF	; 255
    22a4:	7f 4f       	sbci	r23, 0xFF	; 255
    22a6:	8f 4f       	sbci	r24, 0xFF	; 255
    22a8:	9f 4f       	sbci	r25, 0xFF	; 255
    22aa:	08 95       	ret

000022ac <__fp_sinus>:
    22ac:	ef 93       	push	r30
    22ae:	e0 ff       	sbrs	r30, 0
    22b0:	07 c0       	rjmp	.+14     	; 0x22c0 <__fp_sinus+0x14>
    22b2:	a2 ea       	ldi	r26, 0xA2	; 162
    22b4:	2a ed       	ldi	r18, 0xDA	; 218
    22b6:	3f e0       	ldi	r19, 0x0F	; 15
    22b8:	49 ec       	ldi	r20, 0xC9	; 201
    22ba:	5f eb       	ldi	r21, 0xBF	; 191
    22bc:	0e 94 36 10 	call	0x206c	; 0x206c <__addsf3x>
    22c0:	0e 94 45 11 	call	0x228a	; 0x228a <__fp_round>
    22c4:	0f 90       	pop	r0
    22c6:	03 94       	inc	r0
    22c8:	01 fc       	sbrc	r0, 1
    22ca:	90 58       	subi	r25, 0x80	; 128
    22cc:	e4 e5       	ldi	r30, 0x54	; 84
    22ce:	f0 e0       	ldi	r31, 0x00	; 0
    22d0:	0c 94 16 12 	jmp	0x242c	; 0x242c <__fp_powsodd>

000022d4 <__fp_split3>:
    22d4:	57 fd       	sbrc	r21, 7
    22d6:	90 58       	subi	r25, 0x80	; 128
    22d8:	44 0f       	add	r20, r20
    22da:	55 1f       	adc	r21, r21
    22dc:	59 f0       	breq	.+22     	; 0x22f4 <__fp_splitA+0x10>
    22de:	5f 3f       	cpi	r21, 0xFF	; 255
    22e0:	71 f0       	breq	.+28     	; 0x22fe <__fp_splitA+0x1a>
    22e2:	47 95       	ror	r20

000022e4 <__fp_splitA>:
    22e4:	88 0f       	add	r24, r24
    22e6:	97 fb       	bst	r25, 7
    22e8:	99 1f       	adc	r25, r25
    22ea:	61 f0       	breq	.+24     	; 0x2304 <__fp_splitA+0x20>
    22ec:	9f 3f       	cpi	r25, 0xFF	; 255
    22ee:	79 f0       	breq	.+30     	; 0x230e <__fp_splitA+0x2a>
    22f0:	87 95       	ror	r24
    22f2:	08 95       	ret
    22f4:	12 16       	cp	r1, r18
    22f6:	13 06       	cpc	r1, r19
    22f8:	14 06       	cpc	r1, r20
    22fa:	55 1f       	adc	r21, r21
    22fc:	f2 cf       	rjmp	.-28     	; 0x22e2 <__fp_split3+0xe>
    22fe:	46 95       	lsr	r20
    2300:	f1 df       	rcall	.-30     	; 0x22e4 <__fp_splitA>
    2302:	08 c0       	rjmp	.+16     	; 0x2314 <__fp_splitA+0x30>
    2304:	16 16       	cp	r1, r22
    2306:	17 06       	cpc	r1, r23
    2308:	18 06       	cpc	r1, r24
    230a:	99 1f       	adc	r25, r25
    230c:	f1 cf       	rjmp	.-30     	; 0x22f0 <__fp_splitA+0xc>
    230e:	86 95       	lsr	r24
    2310:	71 05       	cpc	r23, r1
    2312:	61 05       	cpc	r22, r1
    2314:	08 94       	sec
    2316:	08 95       	ret

00002318 <__fp_zero>:
    2318:	e8 94       	clt

0000231a <__fp_szero>:
    231a:	bb 27       	eor	r27, r27
    231c:	66 27       	eor	r22, r22
    231e:	77 27       	eor	r23, r23
    2320:	cb 01       	movw	r24, r22
    2322:	97 f9       	bld	r25, 7
    2324:	08 95       	ret

00002326 <__mulsf3>:
    2326:	0e 94 a6 11 	call	0x234c	; 0x234c <__mulsf3x>
    232a:	0c 94 45 11 	jmp	0x228a	; 0x228a <__fp_round>
    232e:	0e 94 0c 11 	call	0x2218	; 0x2218 <__fp_pscA>
    2332:	38 f0       	brcs	.+14     	; 0x2342 <__mulsf3+0x1c>
    2334:	0e 94 13 11 	call	0x2226	; 0x2226 <__fp_pscB>
    2338:	20 f0       	brcs	.+8      	; 0x2342 <__mulsf3+0x1c>
    233a:	95 23       	and	r25, r21
    233c:	11 f0       	breq	.+4      	; 0x2342 <__mulsf3+0x1c>
    233e:	0c 94 03 11 	jmp	0x2206	; 0x2206 <__fp_inf>
    2342:	0c 94 09 11 	jmp	0x2212	; 0x2212 <__fp_nan>
    2346:	11 24       	eor	r1, r1
    2348:	0c 94 8d 11 	jmp	0x231a	; 0x231a <__fp_szero>

0000234c <__mulsf3x>:
    234c:	0e 94 6a 11 	call	0x22d4	; 0x22d4 <__fp_split3>
    2350:	70 f3       	brcs	.-36     	; 0x232e <__mulsf3+0x8>

00002352 <__mulsf3_pse>:
    2352:	95 9f       	mul	r25, r21
    2354:	c1 f3       	breq	.-16     	; 0x2346 <__mulsf3+0x20>
    2356:	95 0f       	add	r25, r21
    2358:	50 e0       	ldi	r21, 0x00	; 0
    235a:	55 1f       	adc	r21, r21
    235c:	62 9f       	mul	r22, r18
    235e:	f0 01       	movw	r30, r0
    2360:	72 9f       	mul	r23, r18
    2362:	bb 27       	eor	r27, r27
    2364:	f0 0d       	add	r31, r0
    2366:	b1 1d       	adc	r27, r1
    2368:	63 9f       	mul	r22, r19
    236a:	aa 27       	eor	r26, r26
    236c:	f0 0d       	add	r31, r0
    236e:	b1 1d       	adc	r27, r1
    2370:	aa 1f       	adc	r26, r26
    2372:	64 9f       	mul	r22, r20
    2374:	66 27       	eor	r22, r22
    2376:	b0 0d       	add	r27, r0
    2378:	a1 1d       	adc	r26, r1
    237a:	66 1f       	adc	r22, r22
    237c:	82 9f       	mul	r24, r18
    237e:	22 27       	eor	r18, r18
    2380:	b0 0d       	add	r27, r0
    2382:	a1 1d       	adc	r26, r1
    2384:	62 1f       	adc	r22, r18
    2386:	73 9f       	mul	r23, r19
    2388:	b0 0d       	add	r27, r0
    238a:	a1 1d       	adc	r26, r1
    238c:	62 1f       	adc	r22, r18
    238e:	83 9f       	mul	r24, r19
    2390:	a0 0d       	add	r26, r0
    2392:	61 1d       	adc	r22, r1
    2394:	22 1f       	adc	r18, r18
    2396:	74 9f       	mul	r23, r20
    2398:	33 27       	eor	r19, r19
    239a:	a0 0d       	add	r26, r0
    239c:	61 1d       	adc	r22, r1
    239e:	23 1f       	adc	r18, r19
    23a0:	84 9f       	mul	r24, r20
    23a2:	60 0d       	add	r22, r0
    23a4:	21 1d       	adc	r18, r1
    23a6:	82 2f       	mov	r24, r18
    23a8:	76 2f       	mov	r23, r22
    23aa:	6a 2f       	mov	r22, r26
    23ac:	11 24       	eor	r1, r1
    23ae:	9f 57       	subi	r25, 0x7F	; 127
    23b0:	50 40       	sbci	r21, 0x00	; 0
    23b2:	9a f0       	brmi	.+38     	; 0x23da <__mulsf3_pse+0x88>
    23b4:	f1 f0       	breq	.+60     	; 0x23f2 <__mulsf3_pse+0xa0>
    23b6:	88 23       	and	r24, r24
    23b8:	4a f0       	brmi	.+18     	; 0x23cc <__mulsf3_pse+0x7a>
    23ba:	ee 0f       	add	r30, r30
    23bc:	ff 1f       	adc	r31, r31
    23be:	bb 1f       	adc	r27, r27
    23c0:	66 1f       	adc	r22, r22
    23c2:	77 1f       	adc	r23, r23
    23c4:	88 1f       	adc	r24, r24
    23c6:	91 50       	subi	r25, 0x01	; 1
    23c8:	50 40       	sbci	r21, 0x00	; 0
    23ca:	a9 f7       	brne	.-22     	; 0x23b6 <__mulsf3_pse+0x64>
    23cc:	9e 3f       	cpi	r25, 0xFE	; 254
    23ce:	51 05       	cpc	r21, r1
    23d0:	80 f0       	brcs	.+32     	; 0x23f2 <__mulsf3_pse+0xa0>
    23d2:	0c 94 03 11 	jmp	0x2206	; 0x2206 <__fp_inf>
    23d6:	0c 94 8d 11 	jmp	0x231a	; 0x231a <__fp_szero>
    23da:	5f 3f       	cpi	r21, 0xFF	; 255
    23dc:	e4 f3       	brlt	.-8      	; 0x23d6 <__mulsf3_pse+0x84>
    23de:	98 3e       	cpi	r25, 0xE8	; 232
    23e0:	d4 f3       	brlt	.-12     	; 0x23d6 <__mulsf3_pse+0x84>
    23e2:	86 95       	lsr	r24
    23e4:	77 95       	ror	r23
    23e6:	67 95       	ror	r22
    23e8:	b7 95       	ror	r27
    23ea:	f7 95       	ror	r31
    23ec:	e7 95       	ror	r30
    23ee:	9f 5f       	subi	r25, 0xFF	; 255
    23f0:	c1 f7       	brne	.-16     	; 0x23e2 <__mulsf3_pse+0x90>
    23f2:	fe 2b       	or	r31, r30
    23f4:	88 0f       	add	r24, r24
    23f6:	91 1d       	adc	r25, r1
    23f8:	96 95       	lsr	r25
    23fa:	87 95       	ror	r24
    23fc:	97 f9       	bld	r25, 7
    23fe:	08 95       	ret

00002400 <sin>:
    2400:	9f 93       	push	r25
    2402:	0e 94 1c 11 	call	0x2238	; 0x2238 <__fp_rempio2>
    2406:	0f 90       	pop	r0
    2408:	07 fc       	sbrc	r0, 7
    240a:	ee 5f       	subi	r30, 0xFE	; 254
    240c:	0c 94 56 11 	jmp	0x22ac	; 0x22ac <__fp_sinus>

00002410 <__fp_mpack>:
    2410:	9f 3f       	cpi	r25, 0xFF	; 255
    2412:	31 f0       	breq	.+12     	; 0x2420 <__fp_mpack_finite+0xc>

00002414 <__fp_mpack_finite>:
    2414:	91 50       	subi	r25, 0x01	; 1
    2416:	20 f4       	brcc	.+8      	; 0x2420 <__fp_mpack_finite+0xc>
    2418:	87 95       	ror	r24
    241a:	77 95       	ror	r23
    241c:	67 95       	ror	r22
    241e:	b7 95       	ror	r27
    2420:	88 0f       	add	r24, r24
    2422:	91 1d       	adc	r25, r1
    2424:	96 95       	lsr	r25
    2426:	87 95       	ror	r24
    2428:	97 f9       	bld	r25, 7
    242a:	08 95       	ret

0000242c <__fp_powsodd>:
    242c:	9f 93       	push	r25
    242e:	8f 93       	push	r24
    2430:	7f 93       	push	r23
    2432:	6f 93       	push	r22
    2434:	ff 93       	push	r31
    2436:	ef 93       	push	r30
    2438:	9b 01       	movw	r18, r22
    243a:	ac 01       	movw	r20, r24
    243c:	0e 94 93 11 	call	0x2326	; 0x2326 <__mulsf3>
    2440:	ef 91       	pop	r30
    2442:	ff 91       	pop	r31
    2444:	0e 94 2a 12 	call	0x2454	; 0x2454 <__fp_powser>
    2448:	2f 91       	pop	r18
    244a:	3f 91       	pop	r19
    244c:	4f 91       	pop	r20
    244e:	5f 91       	pop	r21
    2450:	0c 94 93 11 	jmp	0x2326	; 0x2326 <__mulsf3>

00002454 <__fp_powser>:
    2454:	df 93       	push	r29
    2456:	cf 93       	push	r28
    2458:	1f 93       	push	r17
    245a:	0f 93       	push	r16
    245c:	ff 92       	push	r15
    245e:	ef 92       	push	r14
    2460:	df 92       	push	r13
    2462:	7b 01       	movw	r14, r22
    2464:	8c 01       	movw	r16, r24
    2466:	68 94       	set
    2468:	06 c0       	rjmp	.+12     	; 0x2476 <__fp_powser+0x22>
    246a:	da 2e       	mov	r13, r26
    246c:	ef 01       	movw	r28, r30
    246e:	0e 94 a6 11 	call	0x234c	; 0x234c <__mulsf3x>
    2472:	fe 01       	movw	r30, r28
    2474:	e8 94       	clt
    2476:	a5 91       	lpm	r26, Z+
    2478:	25 91       	lpm	r18, Z+
    247a:	35 91       	lpm	r19, Z+
    247c:	45 91       	lpm	r20, Z+
    247e:	55 91       	lpm	r21, Z+
    2480:	a6 f3       	brts	.-24     	; 0x246a <__fp_powser+0x16>
    2482:	ef 01       	movw	r28, r30
    2484:	0e 94 36 10 	call	0x206c	; 0x206c <__addsf3x>
    2488:	fe 01       	movw	r30, r28
    248a:	97 01       	movw	r18, r14
    248c:	a8 01       	movw	r20, r16
    248e:	da 94       	dec	r13
    2490:	69 f7       	brne	.-38     	; 0x246c <__fp_powser+0x18>
    2492:	df 90       	pop	r13
    2494:	ef 90       	pop	r14
    2496:	ff 90       	pop	r15
    2498:	0f 91       	pop	r16
    249a:	1f 91       	pop	r17
    249c:	cf 91       	pop	r28
    249e:	df 91       	pop	r29
    24a0:	08 95       	ret

000024a2 <__mulsi3>:
    24a2:	db 01       	movw	r26, r22
    24a4:	8f 93       	push	r24
    24a6:	9f 93       	push	r25
    24a8:	0e 94 97 12 	call	0x252e	; 0x252e <__muluhisi3>
    24ac:	bf 91       	pop	r27
    24ae:	af 91       	pop	r26
    24b0:	a2 9f       	mul	r26, r18
    24b2:	80 0d       	add	r24, r0
    24b4:	91 1d       	adc	r25, r1
    24b6:	a3 9f       	mul	r26, r19
    24b8:	90 0d       	add	r25, r0
    24ba:	b2 9f       	mul	r27, r18
    24bc:	90 0d       	add	r25, r0
    24be:	11 24       	eor	r1, r1
    24c0:	08 95       	ret

000024c2 <__divmodhi4>:
    24c2:	97 fb       	bst	r25, 7
    24c4:	07 2e       	mov	r0, r23
    24c6:	16 f4       	brtc	.+4      	; 0x24cc <__divmodhi4+0xa>
    24c8:	00 94       	com	r0
    24ca:	07 d0       	rcall	.+14     	; 0x24da <__divmodhi4_neg1>
    24cc:	77 fd       	sbrc	r23, 7
    24ce:	09 d0       	rcall	.+18     	; 0x24e2 <__divmodhi4_neg2>
    24d0:	0e 94 aa 12 	call	0x2554	; 0x2554 <__udivmodhi4>
    24d4:	07 fc       	sbrc	r0, 7
    24d6:	05 d0       	rcall	.+10     	; 0x24e2 <__divmodhi4_neg2>
    24d8:	3e f4       	brtc	.+14     	; 0x24e8 <__divmodhi4_exit>

000024da <__divmodhi4_neg1>:
    24da:	90 95       	com	r25
    24dc:	81 95       	neg	r24
    24de:	9f 4f       	sbci	r25, 0xFF	; 255
    24e0:	08 95       	ret

000024e2 <__divmodhi4_neg2>:
    24e2:	70 95       	com	r23
    24e4:	61 95       	neg	r22
    24e6:	7f 4f       	sbci	r23, 0xFF	; 255

000024e8 <__divmodhi4_exit>:
    24e8:	08 95       	ret

000024ea <__udivmodsi4>:
    24ea:	a1 e2       	ldi	r26, 0x21	; 33
    24ec:	1a 2e       	mov	r1, r26
    24ee:	aa 1b       	sub	r26, r26
    24f0:	bb 1b       	sub	r27, r27
    24f2:	fd 01       	movw	r30, r26
    24f4:	0d c0       	rjmp	.+26     	; 0x2510 <__udivmodsi4_ep>

000024f6 <__udivmodsi4_loop>:
    24f6:	aa 1f       	adc	r26, r26
    24f8:	bb 1f       	adc	r27, r27
    24fa:	ee 1f       	adc	r30, r30
    24fc:	ff 1f       	adc	r31, r31
    24fe:	a2 17       	cp	r26, r18
    2500:	b3 07       	cpc	r27, r19
    2502:	e4 07       	cpc	r30, r20
    2504:	f5 07       	cpc	r31, r21
    2506:	20 f0       	brcs	.+8      	; 0x2510 <__udivmodsi4_ep>
    2508:	a2 1b       	sub	r26, r18
    250a:	b3 0b       	sbc	r27, r19
    250c:	e4 0b       	sbc	r30, r20
    250e:	f5 0b       	sbc	r31, r21

00002510 <__udivmodsi4_ep>:
    2510:	66 1f       	adc	r22, r22
    2512:	77 1f       	adc	r23, r23
    2514:	88 1f       	adc	r24, r24
    2516:	99 1f       	adc	r25, r25
    2518:	1a 94       	dec	r1
    251a:	69 f7       	brne	.-38     	; 0x24f6 <__udivmodsi4_loop>
    251c:	60 95       	com	r22
    251e:	70 95       	com	r23
    2520:	80 95       	com	r24
    2522:	90 95       	com	r25
    2524:	9b 01       	movw	r18, r22
    2526:	ac 01       	movw	r20, r24
    2528:	bd 01       	movw	r22, r26
    252a:	cf 01       	movw	r24, r30
    252c:	08 95       	ret

0000252e <__muluhisi3>:
    252e:	0e 94 c4 12 	call	0x2588	; 0x2588 <__umulhisi3>
    2532:	a5 9f       	mul	r26, r21
    2534:	90 0d       	add	r25, r0
    2536:	b4 9f       	mul	r27, r20
    2538:	90 0d       	add	r25, r0
    253a:	a4 9f       	mul	r26, r20
    253c:	80 0d       	add	r24, r0
    253e:	91 1d       	adc	r25, r1
    2540:	11 24       	eor	r1, r1
    2542:	08 95       	ret

00002544 <__mulshisi3>:
    2544:	b7 ff       	sbrs	r27, 7
    2546:	0c 94 97 12 	jmp	0x252e	; 0x252e <__muluhisi3>

0000254a <__mulohisi3>:
    254a:	0e 94 97 12 	call	0x252e	; 0x252e <__muluhisi3>
    254e:	82 1b       	sub	r24, r18
    2550:	93 0b       	sbc	r25, r19
    2552:	08 95       	ret

00002554 <__udivmodhi4>:
    2554:	aa 1b       	sub	r26, r26
    2556:	bb 1b       	sub	r27, r27
    2558:	51 e1       	ldi	r21, 0x11	; 17
    255a:	07 c0       	rjmp	.+14     	; 0x256a <__udivmodhi4_ep>

0000255c <__udivmodhi4_loop>:
    255c:	aa 1f       	adc	r26, r26
    255e:	bb 1f       	adc	r27, r27
    2560:	a6 17       	cp	r26, r22
    2562:	b7 07       	cpc	r27, r23
    2564:	10 f0       	brcs	.+4      	; 0x256a <__udivmodhi4_ep>
    2566:	a6 1b       	sub	r26, r22
    2568:	b7 0b       	sbc	r27, r23

0000256a <__udivmodhi4_ep>:
    256a:	88 1f       	adc	r24, r24
    256c:	99 1f       	adc	r25, r25
    256e:	5a 95       	dec	r21
    2570:	a9 f7       	brne	.-22     	; 0x255c <__udivmodhi4_loop>
    2572:	80 95       	com	r24
    2574:	90 95       	com	r25
    2576:	bc 01       	movw	r22, r24
    2578:	cd 01       	movw	r24, r26
    257a:	08 95       	ret

0000257c <__tablejump2__>:
    257c:	ee 0f       	add	r30, r30
    257e:	ff 1f       	adc	r31, r31
    2580:	05 90       	lpm	r0, Z+
    2582:	f4 91       	lpm	r31, Z
    2584:	e0 2d       	mov	r30, r0
    2586:	09 94       	ijmp

00002588 <__umulhisi3>:
    2588:	a2 9f       	mul	r26, r18
    258a:	b0 01       	movw	r22, r0
    258c:	b3 9f       	mul	r27, r19
    258e:	c0 01       	movw	r24, r0
    2590:	a3 9f       	mul	r26, r19
    2592:	70 0d       	add	r23, r0
    2594:	81 1d       	adc	r24, r1
    2596:	11 24       	eor	r1, r1
    2598:	91 1d       	adc	r25, r1
    259a:	b2 9f       	mul	r27, r18
    259c:	70 0d       	add	r23, r0
    259e:	81 1d       	adc	r24, r1
    25a0:	11 24       	eor	r1, r1
    25a2:	91 1d       	adc	r25, r1
    25a4:	08 95       	ret

000025a6 <do_rand>:
    25a6:	8f 92       	push	r8
    25a8:	9f 92       	push	r9
    25aa:	af 92       	push	r10
    25ac:	bf 92       	push	r11
    25ae:	cf 92       	push	r12
    25b0:	df 92       	push	r13
    25b2:	ef 92       	push	r14
    25b4:	ff 92       	push	r15
    25b6:	cf 93       	push	r28
    25b8:	df 93       	push	r29
    25ba:	ec 01       	movw	r28, r24
    25bc:	68 81       	ld	r22, Y
    25be:	79 81       	ldd	r23, Y+1	; 0x01
    25c0:	8a 81       	ldd	r24, Y+2	; 0x02
    25c2:	9b 81       	ldd	r25, Y+3	; 0x03
    25c4:	61 15       	cp	r22, r1
    25c6:	71 05       	cpc	r23, r1
    25c8:	81 05       	cpc	r24, r1
    25ca:	91 05       	cpc	r25, r1
    25cc:	21 f4       	brne	.+8      	; 0x25d6 <do_rand+0x30>
    25ce:	64 e2       	ldi	r22, 0x24	; 36
    25d0:	79 ed       	ldi	r23, 0xD9	; 217
    25d2:	8b e5       	ldi	r24, 0x5B	; 91
    25d4:	97 e0       	ldi	r25, 0x07	; 7
    25d6:	2d e1       	ldi	r18, 0x1D	; 29
    25d8:	33 ef       	ldi	r19, 0xF3	; 243
    25da:	41 e0       	ldi	r20, 0x01	; 1
    25dc:	50 e0       	ldi	r21, 0x00	; 0
    25de:	0e 94 e2 15 	call	0x2bc4	; 0x2bc4 <__divmodsi4>
    25e2:	49 01       	movw	r8, r18
    25e4:	5a 01       	movw	r10, r20
    25e6:	9b 01       	movw	r18, r22
    25e8:	ac 01       	movw	r20, r24
    25ea:	a7 ea       	ldi	r26, 0xA7	; 167
    25ec:	b1 e4       	ldi	r27, 0x41	; 65
    25ee:	0e 94 97 12 	call	0x252e	; 0x252e <__muluhisi3>
    25f2:	6b 01       	movw	r12, r22
    25f4:	7c 01       	movw	r14, r24
    25f6:	ac ee       	ldi	r26, 0xEC	; 236
    25f8:	b4 ef       	ldi	r27, 0xF4	; 244
    25fa:	a5 01       	movw	r20, r10
    25fc:	94 01       	movw	r18, r8
    25fe:	0e 94 a5 12 	call	0x254a	; 0x254a <__mulohisi3>
    2602:	dc 01       	movw	r26, r24
    2604:	cb 01       	movw	r24, r22
    2606:	8c 0d       	add	r24, r12
    2608:	9d 1d       	adc	r25, r13
    260a:	ae 1d       	adc	r26, r14
    260c:	bf 1d       	adc	r27, r15
    260e:	b7 ff       	sbrs	r27, 7
    2610:	03 c0       	rjmp	.+6      	; 0x2618 <do_rand+0x72>
    2612:	01 97       	sbiw	r24, 0x01	; 1
    2614:	a1 09       	sbc	r26, r1
    2616:	b0 48       	sbci	r27, 0x80	; 128
    2618:	88 83       	st	Y, r24
    261a:	99 83       	std	Y+1, r25	; 0x01
    261c:	aa 83       	std	Y+2, r26	; 0x02
    261e:	bb 83       	std	Y+3, r27	; 0x03
    2620:	9f 77       	andi	r25, 0x7F	; 127
    2622:	df 91       	pop	r29
    2624:	cf 91       	pop	r28
    2626:	ff 90       	pop	r15
    2628:	ef 90       	pop	r14
    262a:	df 90       	pop	r13
    262c:	cf 90       	pop	r12
    262e:	bf 90       	pop	r11
    2630:	af 90       	pop	r10
    2632:	9f 90       	pop	r9
    2634:	8f 90       	pop	r8
    2636:	08 95       	ret

00002638 <rand_r>:
    2638:	0e 94 d3 12 	call	0x25a6	; 0x25a6 <do_rand>
    263c:	08 95       	ret

0000263e <rand>:
    263e:	80 e6       	ldi	r24, 0x60	; 96
    2640:	90 e0       	ldi	r25, 0x00	; 0
    2642:	0e 94 d3 12 	call	0x25a6	; 0x25a6 <do_rand>
    2646:	08 95       	ret

00002648 <srand>:
    2648:	a0 e0       	ldi	r26, 0x00	; 0
    264a:	b0 e0       	ldi	r27, 0x00	; 0
    264c:	80 93 60 00 	sts	0x0060, r24	; 0x800060 <__DATA_REGION_ORIGIN__>
    2650:	90 93 61 00 	sts	0x0061, r25	; 0x800061 <__DATA_REGION_ORIGIN__+0x1>
    2654:	a0 93 62 00 	sts	0x0062, r26	; 0x800062 <__DATA_REGION_ORIGIN__+0x2>
    2658:	b0 93 63 00 	sts	0x0063, r27	; 0x800063 <__DATA_REGION_ORIGIN__+0x3>
    265c:	08 95       	ret

0000265e <sprintf>:
    265e:	ae e0       	ldi	r26, 0x0E	; 14
    2660:	b0 e0       	ldi	r27, 0x00	; 0
    2662:	e5 e3       	ldi	r30, 0x35	; 53
    2664:	f3 e1       	ldi	r31, 0x13	; 19
    2666:	0c 94 0f 16 	jmp	0x2c1e	; 0x2c1e <__prologue_saves__+0x1c>
    266a:	0d 89       	ldd	r16, Y+21	; 0x15
    266c:	1e 89       	ldd	r17, Y+22	; 0x16
    266e:	86 e0       	ldi	r24, 0x06	; 6
    2670:	8c 83       	std	Y+4, r24	; 0x04
    2672:	1a 83       	std	Y+2, r17	; 0x02
    2674:	09 83       	std	Y+1, r16	; 0x01
    2676:	8f ef       	ldi	r24, 0xFF	; 255
    2678:	9f e7       	ldi	r25, 0x7F	; 127
    267a:	9e 83       	std	Y+6, r25	; 0x06
    267c:	8d 83       	std	Y+5, r24	; 0x05
    267e:	ae 01       	movw	r20, r28
    2680:	47 5e       	subi	r20, 0xE7	; 231
    2682:	5f 4f       	sbci	r21, 0xFF	; 255
    2684:	6f 89       	ldd	r22, Y+23	; 0x17
    2686:	78 8d       	ldd	r23, Y+24	; 0x18
    2688:	ce 01       	movw	r24, r28
    268a:	01 96       	adiw	r24, 0x01	; 1
    268c:	0e 94 51 13 	call	0x26a2	; 0x26a2 <vfprintf>
    2690:	ef 81       	ldd	r30, Y+7	; 0x07
    2692:	f8 85       	ldd	r31, Y+8	; 0x08
    2694:	e0 0f       	add	r30, r16
    2696:	f1 1f       	adc	r31, r17
    2698:	10 82       	st	Z, r1
    269a:	2e 96       	adiw	r28, 0x0e	; 14
    269c:	e4 e0       	ldi	r30, 0x04	; 4
    269e:	0c 94 2b 16 	jmp	0x2c56	; 0x2c56 <__epilogue_restores__+0x1c>

000026a2 <vfprintf>:
    26a2:	ab e0       	ldi	r26, 0x0B	; 11
    26a4:	b0 e0       	ldi	r27, 0x00	; 0
    26a6:	e7 e5       	ldi	r30, 0x57	; 87
    26a8:	f3 e1       	ldi	r31, 0x13	; 19
    26aa:	0c 94 01 16 	jmp	0x2c02	; 0x2c02 <__prologue_saves__>
    26ae:	6c 01       	movw	r12, r24
    26b0:	7b 01       	movw	r14, r22
    26b2:	8a 01       	movw	r16, r20
    26b4:	fc 01       	movw	r30, r24
    26b6:	17 82       	std	Z+7, r1	; 0x07
    26b8:	16 82       	std	Z+6, r1	; 0x06
    26ba:	83 81       	ldd	r24, Z+3	; 0x03
    26bc:	81 ff       	sbrs	r24, 1
    26be:	cc c1       	rjmp	.+920    	; 0x2a58 <vfprintf+0x3b6>
    26c0:	ce 01       	movw	r24, r28
    26c2:	01 96       	adiw	r24, 0x01	; 1
    26c4:	3c 01       	movw	r6, r24
    26c6:	f6 01       	movw	r30, r12
    26c8:	93 81       	ldd	r25, Z+3	; 0x03
    26ca:	f7 01       	movw	r30, r14
    26cc:	93 fd       	sbrc	r25, 3
    26ce:	85 91       	lpm	r24, Z+
    26d0:	93 ff       	sbrs	r25, 3
    26d2:	81 91       	ld	r24, Z+
    26d4:	7f 01       	movw	r14, r30
    26d6:	88 23       	and	r24, r24
    26d8:	09 f4       	brne	.+2      	; 0x26dc <vfprintf+0x3a>
    26da:	ba c1       	rjmp	.+884    	; 0x2a50 <vfprintf+0x3ae>
    26dc:	85 32       	cpi	r24, 0x25	; 37
    26de:	39 f4       	brne	.+14     	; 0x26ee <vfprintf+0x4c>
    26e0:	93 fd       	sbrc	r25, 3
    26e2:	85 91       	lpm	r24, Z+
    26e4:	93 ff       	sbrs	r25, 3
    26e6:	81 91       	ld	r24, Z+
    26e8:	7f 01       	movw	r14, r30
    26ea:	85 32       	cpi	r24, 0x25	; 37
    26ec:	29 f4       	brne	.+10     	; 0x26f8 <vfprintf+0x56>
    26ee:	b6 01       	movw	r22, r12
    26f0:	90 e0       	ldi	r25, 0x00	; 0
    26f2:	0e 94 48 15 	call	0x2a90	; 0x2a90 <fputc>
    26f6:	e7 cf       	rjmp	.-50     	; 0x26c6 <vfprintf+0x24>
    26f8:	91 2c       	mov	r9, r1
    26fa:	21 2c       	mov	r2, r1
    26fc:	31 2c       	mov	r3, r1
    26fe:	ff e1       	ldi	r31, 0x1F	; 31
    2700:	f3 15       	cp	r31, r3
    2702:	d8 f0       	brcs	.+54     	; 0x273a <vfprintf+0x98>
    2704:	8b 32       	cpi	r24, 0x2B	; 43
    2706:	79 f0       	breq	.+30     	; 0x2726 <vfprintf+0x84>
    2708:	38 f4       	brcc	.+14     	; 0x2718 <vfprintf+0x76>
    270a:	80 32       	cpi	r24, 0x20	; 32
    270c:	79 f0       	breq	.+30     	; 0x272c <vfprintf+0x8a>
    270e:	83 32       	cpi	r24, 0x23	; 35
    2710:	a1 f4       	brne	.+40     	; 0x273a <vfprintf+0x98>
    2712:	23 2d       	mov	r18, r3
    2714:	20 61       	ori	r18, 0x10	; 16
    2716:	1d c0       	rjmp	.+58     	; 0x2752 <vfprintf+0xb0>
    2718:	8d 32       	cpi	r24, 0x2D	; 45
    271a:	61 f0       	breq	.+24     	; 0x2734 <vfprintf+0x92>
    271c:	80 33       	cpi	r24, 0x30	; 48
    271e:	69 f4       	brne	.+26     	; 0x273a <vfprintf+0x98>
    2720:	23 2d       	mov	r18, r3
    2722:	21 60       	ori	r18, 0x01	; 1
    2724:	16 c0       	rjmp	.+44     	; 0x2752 <vfprintf+0xb0>
    2726:	83 2d       	mov	r24, r3
    2728:	82 60       	ori	r24, 0x02	; 2
    272a:	38 2e       	mov	r3, r24
    272c:	e3 2d       	mov	r30, r3
    272e:	e4 60       	ori	r30, 0x04	; 4
    2730:	3e 2e       	mov	r3, r30
    2732:	2a c0       	rjmp	.+84     	; 0x2788 <vfprintf+0xe6>
    2734:	f3 2d       	mov	r31, r3
    2736:	f8 60       	ori	r31, 0x08	; 8
    2738:	1d c0       	rjmp	.+58     	; 0x2774 <vfprintf+0xd2>
    273a:	37 fc       	sbrc	r3, 7
    273c:	2d c0       	rjmp	.+90     	; 0x2798 <vfprintf+0xf6>
    273e:	20 ed       	ldi	r18, 0xD0	; 208
    2740:	28 0f       	add	r18, r24
    2742:	2a 30       	cpi	r18, 0x0A	; 10
    2744:	40 f0       	brcs	.+16     	; 0x2756 <vfprintf+0xb4>
    2746:	8e 32       	cpi	r24, 0x2E	; 46
    2748:	b9 f4       	brne	.+46     	; 0x2778 <vfprintf+0xd6>
    274a:	36 fc       	sbrc	r3, 6
    274c:	81 c1       	rjmp	.+770    	; 0x2a50 <vfprintf+0x3ae>
    274e:	23 2d       	mov	r18, r3
    2750:	20 64       	ori	r18, 0x40	; 64
    2752:	32 2e       	mov	r3, r18
    2754:	19 c0       	rjmp	.+50     	; 0x2788 <vfprintf+0xe6>
    2756:	36 fe       	sbrs	r3, 6
    2758:	06 c0       	rjmp	.+12     	; 0x2766 <vfprintf+0xc4>
    275a:	8a e0       	ldi	r24, 0x0A	; 10
    275c:	98 9e       	mul	r9, r24
    275e:	20 0d       	add	r18, r0
    2760:	11 24       	eor	r1, r1
    2762:	92 2e       	mov	r9, r18
    2764:	11 c0       	rjmp	.+34     	; 0x2788 <vfprintf+0xe6>
    2766:	ea e0       	ldi	r30, 0x0A	; 10
    2768:	2e 9e       	mul	r2, r30
    276a:	20 0d       	add	r18, r0
    276c:	11 24       	eor	r1, r1
    276e:	22 2e       	mov	r2, r18
    2770:	f3 2d       	mov	r31, r3
    2772:	f0 62       	ori	r31, 0x20	; 32
    2774:	3f 2e       	mov	r3, r31
    2776:	08 c0       	rjmp	.+16     	; 0x2788 <vfprintf+0xe6>
    2778:	8c 36       	cpi	r24, 0x6C	; 108
    277a:	21 f4       	brne	.+8      	; 0x2784 <vfprintf+0xe2>
    277c:	83 2d       	mov	r24, r3
    277e:	80 68       	ori	r24, 0x80	; 128
    2780:	38 2e       	mov	r3, r24
    2782:	02 c0       	rjmp	.+4      	; 0x2788 <vfprintf+0xe6>
    2784:	88 36       	cpi	r24, 0x68	; 104
    2786:	41 f4       	brne	.+16     	; 0x2798 <vfprintf+0xf6>
    2788:	f7 01       	movw	r30, r14
    278a:	93 fd       	sbrc	r25, 3
    278c:	85 91       	lpm	r24, Z+
    278e:	93 ff       	sbrs	r25, 3
    2790:	81 91       	ld	r24, Z+
    2792:	7f 01       	movw	r14, r30
    2794:	81 11       	cpse	r24, r1
    2796:	b3 cf       	rjmp	.-154    	; 0x26fe <vfprintf+0x5c>
    2798:	98 2f       	mov	r25, r24
    279a:	9f 7d       	andi	r25, 0xDF	; 223
    279c:	95 54       	subi	r25, 0x45	; 69
    279e:	93 30       	cpi	r25, 0x03	; 3
    27a0:	28 f4       	brcc	.+10     	; 0x27ac <vfprintf+0x10a>
    27a2:	0c 5f       	subi	r16, 0xFC	; 252
    27a4:	1f 4f       	sbci	r17, 0xFF	; 255
    27a6:	9f e3       	ldi	r25, 0x3F	; 63
    27a8:	99 83       	std	Y+1, r25	; 0x01
    27aa:	0d c0       	rjmp	.+26     	; 0x27c6 <vfprintf+0x124>
    27ac:	83 36       	cpi	r24, 0x63	; 99
    27ae:	31 f0       	breq	.+12     	; 0x27bc <vfprintf+0x11a>
    27b0:	83 37       	cpi	r24, 0x73	; 115
    27b2:	71 f0       	breq	.+28     	; 0x27d0 <vfprintf+0x12e>
    27b4:	83 35       	cpi	r24, 0x53	; 83
    27b6:	09 f0       	breq	.+2      	; 0x27ba <vfprintf+0x118>
    27b8:	59 c0       	rjmp	.+178    	; 0x286c <vfprintf+0x1ca>
    27ba:	21 c0       	rjmp	.+66     	; 0x27fe <vfprintf+0x15c>
    27bc:	f8 01       	movw	r30, r16
    27be:	80 81       	ld	r24, Z
    27c0:	89 83       	std	Y+1, r24	; 0x01
    27c2:	0e 5f       	subi	r16, 0xFE	; 254
    27c4:	1f 4f       	sbci	r17, 0xFF	; 255
    27c6:	88 24       	eor	r8, r8
    27c8:	83 94       	inc	r8
    27ca:	91 2c       	mov	r9, r1
    27cc:	53 01       	movw	r10, r6
    27ce:	13 c0       	rjmp	.+38     	; 0x27f6 <vfprintf+0x154>
    27d0:	28 01       	movw	r4, r16
    27d2:	f2 e0       	ldi	r31, 0x02	; 2
    27d4:	4f 0e       	add	r4, r31
    27d6:	51 1c       	adc	r5, r1
    27d8:	f8 01       	movw	r30, r16
    27da:	a0 80       	ld	r10, Z
    27dc:	b1 80       	ldd	r11, Z+1	; 0x01
    27de:	36 fe       	sbrs	r3, 6
    27e0:	03 c0       	rjmp	.+6      	; 0x27e8 <vfprintf+0x146>
    27e2:	69 2d       	mov	r22, r9
    27e4:	70 e0       	ldi	r23, 0x00	; 0
    27e6:	02 c0       	rjmp	.+4      	; 0x27ec <vfprintf+0x14a>
    27e8:	6f ef       	ldi	r22, 0xFF	; 255
    27ea:	7f ef       	ldi	r23, 0xFF	; 255
    27ec:	c5 01       	movw	r24, r10
    27ee:	0e 94 3d 15 	call	0x2a7a	; 0x2a7a <strnlen>
    27f2:	4c 01       	movw	r8, r24
    27f4:	82 01       	movw	r16, r4
    27f6:	f3 2d       	mov	r31, r3
    27f8:	ff 77       	andi	r31, 0x7F	; 127
    27fa:	3f 2e       	mov	r3, r31
    27fc:	16 c0       	rjmp	.+44     	; 0x282a <vfprintf+0x188>
    27fe:	28 01       	movw	r4, r16
    2800:	22 e0       	ldi	r18, 0x02	; 2
    2802:	42 0e       	add	r4, r18
    2804:	51 1c       	adc	r5, r1
    2806:	f8 01       	movw	r30, r16
    2808:	a0 80       	ld	r10, Z
    280a:	b1 80       	ldd	r11, Z+1	; 0x01
    280c:	36 fe       	sbrs	r3, 6
    280e:	03 c0       	rjmp	.+6      	; 0x2816 <vfprintf+0x174>
    2810:	69 2d       	mov	r22, r9
    2812:	70 e0       	ldi	r23, 0x00	; 0
    2814:	02 c0       	rjmp	.+4      	; 0x281a <vfprintf+0x178>
    2816:	6f ef       	ldi	r22, 0xFF	; 255
    2818:	7f ef       	ldi	r23, 0xFF	; 255
    281a:	c5 01       	movw	r24, r10
    281c:	0e 94 32 15 	call	0x2a64	; 0x2a64 <strnlen_P>
    2820:	4c 01       	movw	r8, r24
    2822:	f3 2d       	mov	r31, r3
    2824:	f0 68       	ori	r31, 0x80	; 128
    2826:	3f 2e       	mov	r3, r31
    2828:	82 01       	movw	r16, r4
    282a:	33 fc       	sbrc	r3, 3
    282c:	1b c0       	rjmp	.+54     	; 0x2864 <vfprintf+0x1c2>
    282e:	82 2d       	mov	r24, r2
    2830:	90 e0       	ldi	r25, 0x00	; 0
    2832:	88 16       	cp	r8, r24
    2834:	99 06       	cpc	r9, r25
    2836:	b0 f4       	brcc	.+44     	; 0x2864 <vfprintf+0x1c2>
    2838:	b6 01       	movw	r22, r12
    283a:	80 e2       	ldi	r24, 0x20	; 32
    283c:	90 e0       	ldi	r25, 0x00	; 0
    283e:	0e 94 48 15 	call	0x2a90	; 0x2a90 <fputc>
    2842:	2a 94       	dec	r2
    2844:	f4 cf       	rjmp	.-24     	; 0x282e <vfprintf+0x18c>
    2846:	f5 01       	movw	r30, r10
    2848:	37 fc       	sbrc	r3, 7
    284a:	85 91       	lpm	r24, Z+
    284c:	37 fe       	sbrs	r3, 7
    284e:	81 91       	ld	r24, Z+
    2850:	5f 01       	movw	r10, r30
    2852:	b6 01       	movw	r22, r12
    2854:	90 e0       	ldi	r25, 0x00	; 0
    2856:	0e 94 48 15 	call	0x2a90	; 0x2a90 <fputc>
    285a:	21 10       	cpse	r2, r1
    285c:	2a 94       	dec	r2
    285e:	21 e0       	ldi	r18, 0x01	; 1
    2860:	82 1a       	sub	r8, r18
    2862:	91 08       	sbc	r9, r1
    2864:	81 14       	cp	r8, r1
    2866:	91 04       	cpc	r9, r1
    2868:	71 f7       	brne	.-36     	; 0x2846 <vfprintf+0x1a4>
    286a:	e8 c0       	rjmp	.+464    	; 0x2a3c <vfprintf+0x39a>
    286c:	84 36       	cpi	r24, 0x64	; 100
    286e:	11 f0       	breq	.+4      	; 0x2874 <vfprintf+0x1d2>
    2870:	89 36       	cpi	r24, 0x69	; 105
    2872:	41 f5       	brne	.+80     	; 0x28c4 <vfprintf+0x222>
    2874:	f8 01       	movw	r30, r16
    2876:	37 fe       	sbrs	r3, 7
    2878:	07 c0       	rjmp	.+14     	; 0x2888 <vfprintf+0x1e6>
    287a:	60 81       	ld	r22, Z
    287c:	71 81       	ldd	r23, Z+1	; 0x01
    287e:	82 81       	ldd	r24, Z+2	; 0x02
    2880:	93 81       	ldd	r25, Z+3	; 0x03
    2882:	0c 5f       	subi	r16, 0xFC	; 252
    2884:	1f 4f       	sbci	r17, 0xFF	; 255
    2886:	08 c0       	rjmp	.+16     	; 0x2898 <vfprintf+0x1f6>
    2888:	60 81       	ld	r22, Z
    288a:	71 81       	ldd	r23, Z+1	; 0x01
    288c:	07 2e       	mov	r0, r23
    288e:	00 0c       	add	r0, r0
    2890:	88 0b       	sbc	r24, r24
    2892:	99 0b       	sbc	r25, r25
    2894:	0e 5f       	subi	r16, 0xFE	; 254
    2896:	1f 4f       	sbci	r17, 0xFF	; 255
    2898:	f3 2d       	mov	r31, r3
    289a:	ff 76       	andi	r31, 0x6F	; 111
    289c:	3f 2e       	mov	r3, r31
    289e:	97 ff       	sbrs	r25, 7
    28a0:	09 c0       	rjmp	.+18     	; 0x28b4 <vfprintf+0x212>
    28a2:	90 95       	com	r25
    28a4:	80 95       	com	r24
    28a6:	70 95       	com	r23
    28a8:	61 95       	neg	r22
    28aa:	7f 4f       	sbci	r23, 0xFF	; 255
    28ac:	8f 4f       	sbci	r24, 0xFF	; 255
    28ae:	9f 4f       	sbci	r25, 0xFF	; 255
    28b0:	f0 68       	ori	r31, 0x80	; 128
    28b2:	3f 2e       	mov	r3, r31
    28b4:	2a e0       	ldi	r18, 0x0A	; 10
    28b6:	30 e0       	ldi	r19, 0x00	; 0
    28b8:	a3 01       	movw	r20, r6
    28ba:	0e 94 84 15 	call	0x2b08	; 0x2b08 <__ultoa_invert>
    28be:	88 2e       	mov	r8, r24
    28c0:	86 18       	sub	r8, r6
    28c2:	45 c0       	rjmp	.+138    	; 0x294e <vfprintf+0x2ac>
    28c4:	85 37       	cpi	r24, 0x75	; 117
    28c6:	31 f4       	brne	.+12     	; 0x28d4 <vfprintf+0x232>
    28c8:	23 2d       	mov	r18, r3
    28ca:	2f 7e       	andi	r18, 0xEF	; 239
    28cc:	b2 2e       	mov	r11, r18
    28ce:	2a e0       	ldi	r18, 0x0A	; 10
    28d0:	30 e0       	ldi	r19, 0x00	; 0
    28d2:	25 c0       	rjmp	.+74     	; 0x291e <vfprintf+0x27c>
    28d4:	93 2d       	mov	r25, r3
    28d6:	99 7f       	andi	r25, 0xF9	; 249
    28d8:	b9 2e       	mov	r11, r25
    28da:	8f 36       	cpi	r24, 0x6F	; 111
    28dc:	c1 f0       	breq	.+48     	; 0x290e <vfprintf+0x26c>
    28de:	18 f4       	brcc	.+6      	; 0x28e6 <vfprintf+0x244>
    28e0:	88 35       	cpi	r24, 0x58	; 88
    28e2:	79 f0       	breq	.+30     	; 0x2902 <vfprintf+0x260>
    28e4:	b5 c0       	rjmp	.+362    	; 0x2a50 <vfprintf+0x3ae>
    28e6:	80 37       	cpi	r24, 0x70	; 112
    28e8:	19 f0       	breq	.+6      	; 0x28f0 <vfprintf+0x24e>
    28ea:	88 37       	cpi	r24, 0x78	; 120
    28ec:	21 f0       	breq	.+8      	; 0x28f6 <vfprintf+0x254>
    28ee:	b0 c0       	rjmp	.+352    	; 0x2a50 <vfprintf+0x3ae>
    28f0:	e9 2f       	mov	r30, r25
    28f2:	e0 61       	ori	r30, 0x10	; 16
    28f4:	be 2e       	mov	r11, r30
    28f6:	b4 fe       	sbrs	r11, 4
    28f8:	0d c0       	rjmp	.+26     	; 0x2914 <vfprintf+0x272>
    28fa:	fb 2d       	mov	r31, r11
    28fc:	f4 60       	ori	r31, 0x04	; 4
    28fe:	bf 2e       	mov	r11, r31
    2900:	09 c0       	rjmp	.+18     	; 0x2914 <vfprintf+0x272>
    2902:	34 fe       	sbrs	r3, 4
    2904:	0a c0       	rjmp	.+20     	; 0x291a <vfprintf+0x278>
    2906:	29 2f       	mov	r18, r25
    2908:	26 60       	ori	r18, 0x06	; 6
    290a:	b2 2e       	mov	r11, r18
    290c:	06 c0       	rjmp	.+12     	; 0x291a <vfprintf+0x278>
    290e:	28 e0       	ldi	r18, 0x08	; 8
    2910:	30 e0       	ldi	r19, 0x00	; 0
    2912:	05 c0       	rjmp	.+10     	; 0x291e <vfprintf+0x27c>
    2914:	20 e1       	ldi	r18, 0x10	; 16
    2916:	30 e0       	ldi	r19, 0x00	; 0
    2918:	02 c0       	rjmp	.+4      	; 0x291e <vfprintf+0x27c>
    291a:	20 e1       	ldi	r18, 0x10	; 16
    291c:	32 e0       	ldi	r19, 0x02	; 2
    291e:	f8 01       	movw	r30, r16
    2920:	b7 fe       	sbrs	r11, 7
    2922:	07 c0       	rjmp	.+14     	; 0x2932 <vfprintf+0x290>
    2924:	60 81       	ld	r22, Z
    2926:	71 81       	ldd	r23, Z+1	; 0x01
    2928:	82 81       	ldd	r24, Z+2	; 0x02
    292a:	93 81       	ldd	r25, Z+3	; 0x03
    292c:	0c 5f       	subi	r16, 0xFC	; 252
    292e:	1f 4f       	sbci	r17, 0xFF	; 255
    2930:	06 c0       	rjmp	.+12     	; 0x293e <vfprintf+0x29c>
    2932:	60 81       	ld	r22, Z
    2934:	71 81       	ldd	r23, Z+1	; 0x01
    2936:	80 e0       	ldi	r24, 0x00	; 0
    2938:	90 e0       	ldi	r25, 0x00	; 0
    293a:	0e 5f       	subi	r16, 0xFE	; 254
    293c:	1f 4f       	sbci	r17, 0xFF	; 255
    293e:	a3 01       	movw	r20, r6
    2940:	0e 94 84 15 	call	0x2b08	; 0x2b08 <__ultoa_invert>
    2944:	88 2e       	mov	r8, r24
    2946:	86 18       	sub	r8, r6
    2948:	fb 2d       	mov	r31, r11
    294a:	ff 77       	andi	r31, 0x7F	; 127
    294c:	3f 2e       	mov	r3, r31
    294e:	36 fe       	sbrs	r3, 6
    2950:	0d c0       	rjmp	.+26     	; 0x296c <vfprintf+0x2ca>
    2952:	23 2d       	mov	r18, r3
    2954:	2e 7f       	andi	r18, 0xFE	; 254
    2956:	a2 2e       	mov	r10, r18
    2958:	89 14       	cp	r8, r9
    295a:	58 f4       	brcc	.+22     	; 0x2972 <vfprintf+0x2d0>
    295c:	34 fe       	sbrs	r3, 4
    295e:	0b c0       	rjmp	.+22     	; 0x2976 <vfprintf+0x2d4>
    2960:	32 fc       	sbrc	r3, 2
    2962:	09 c0       	rjmp	.+18     	; 0x2976 <vfprintf+0x2d4>
    2964:	83 2d       	mov	r24, r3
    2966:	8e 7e       	andi	r24, 0xEE	; 238
    2968:	a8 2e       	mov	r10, r24
    296a:	05 c0       	rjmp	.+10     	; 0x2976 <vfprintf+0x2d4>
    296c:	b8 2c       	mov	r11, r8
    296e:	a3 2c       	mov	r10, r3
    2970:	03 c0       	rjmp	.+6      	; 0x2978 <vfprintf+0x2d6>
    2972:	b8 2c       	mov	r11, r8
    2974:	01 c0       	rjmp	.+2      	; 0x2978 <vfprintf+0x2d6>
    2976:	b9 2c       	mov	r11, r9
    2978:	a4 fe       	sbrs	r10, 4
    297a:	0f c0       	rjmp	.+30     	; 0x299a <vfprintf+0x2f8>
    297c:	fe 01       	movw	r30, r28
    297e:	e8 0d       	add	r30, r8
    2980:	f1 1d       	adc	r31, r1
    2982:	80 81       	ld	r24, Z
    2984:	80 33       	cpi	r24, 0x30	; 48
    2986:	21 f4       	brne	.+8      	; 0x2990 <vfprintf+0x2ee>
    2988:	9a 2d       	mov	r25, r10
    298a:	99 7e       	andi	r25, 0xE9	; 233
    298c:	a9 2e       	mov	r10, r25
    298e:	09 c0       	rjmp	.+18     	; 0x29a2 <vfprintf+0x300>
    2990:	a2 fe       	sbrs	r10, 2
    2992:	06 c0       	rjmp	.+12     	; 0x29a0 <vfprintf+0x2fe>
    2994:	b3 94       	inc	r11
    2996:	b3 94       	inc	r11
    2998:	04 c0       	rjmp	.+8      	; 0x29a2 <vfprintf+0x300>
    299a:	8a 2d       	mov	r24, r10
    299c:	86 78       	andi	r24, 0x86	; 134
    299e:	09 f0       	breq	.+2      	; 0x29a2 <vfprintf+0x300>
    29a0:	b3 94       	inc	r11
    29a2:	a3 fc       	sbrc	r10, 3
    29a4:	11 c0       	rjmp	.+34     	; 0x29c8 <vfprintf+0x326>
    29a6:	a0 fe       	sbrs	r10, 0
    29a8:	06 c0       	rjmp	.+12     	; 0x29b6 <vfprintf+0x314>
    29aa:	b2 14       	cp	r11, r2
    29ac:	88 f4       	brcc	.+34     	; 0x29d0 <vfprintf+0x32e>
    29ae:	28 0c       	add	r2, r8
    29b0:	92 2c       	mov	r9, r2
    29b2:	9b 18       	sub	r9, r11
    29b4:	0e c0       	rjmp	.+28     	; 0x29d2 <vfprintf+0x330>
    29b6:	b2 14       	cp	r11, r2
    29b8:	60 f4       	brcc	.+24     	; 0x29d2 <vfprintf+0x330>
    29ba:	b6 01       	movw	r22, r12
    29bc:	80 e2       	ldi	r24, 0x20	; 32
    29be:	90 e0       	ldi	r25, 0x00	; 0
    29c0:	0e 94 48 15 	call	0x2a90	; 0x2a90 <fputc>
    29c4:	b3 94       	inc	r11
    29c6:	f7 cf       	rjmp	.-18     	; 0x29b6 <vfprintf+0x314>
    29c8:	b2 14       	cp	r11, r2
    29ca:	18 f4       	brcc	.+6      	; 0x29d2 <vfprintf+0x330>
    29cc:	2b 18       	sub	r2, r11
    29ce:	02 c0       	rjmp	.+4      	; 0x29d4 <vfprintf+0x332>
    29d0:	98 2c       	mov	r9, r8
    29d2:	21 2c       	mov	r2, r1
    29d4:	a4 fe       	sbrs	r10, 4
    29d6:	10 c0       	rjmp	.+32     	; 0x29f8 <vfprintf+0x356>
    29d8:	b6 01       	movw	r22, r12
    29da:	80 e3       	ldi	r24, 0x30	; 48
    29dc:	90 e0       	ldi	r25, 0x00	; 0
    29de:	0e 94 48 15 	call	0x2a90	; 0x2a90 <fputc>
    29e2:	a2 fe       	sbrs	r10, 2
    29e4:	17 c0       	rjmp	.+46     	; 0x2a14 <vfprintf+0x372>
    29e6:	a1 fc       	sbrc	r10, 1
    29e8:	03 c0       	rjmp	.+6      	; 0x29f0 <vfprintf+0x34e>
    29ea:	88 e7       	ldi	r24, 0x78	; 120
    29ec:	90 e0       	ldi	r25, 0x00	; 0
    29ee:	02 c0       	rjmp	.+4      	; 0x29f4 <vfprintf+0x352>
    29f0:	88 e5       	ldi	r24, 0x58	; 88
    29f2:	90 e0       	ldi	r25, 0x00	; 0
    29f4:	b6 01       	movw	r22, r12
    29f6:	0c c0       	rjmp	.+24     	; 0x2a10 <vfprintf+0x36e>
    29f8:	8a 2d       	mov	r24, r10
    29fa:	86 78       	andi	r24, 0x86	; 134
    29fc:	59 f0       	breq	.+22     	; 0x2a14 <vfprintf+0x372>
    29fe:	a1 fe       	sbrs	r10, 1
    2a00:	02 c0       	rjmp	.+4      	; 0x2a06 <vfprintf+0x364>
    2a02:	8b e2       	ldi	r24, 0x2B	; 43
    2a04:	01 c0       	rjmp	.+2      	; 0x2a08 <vfprintf+0x366>
    2a06:	80 e2       	ldi	r24, 0x20	; 32
    2a08:	a7 fc       	sbrc	r10, 7
    2a0a:	8d e2       	ldi	r24, 0x2D	; 45
    2a0c:	b6 01       	movw	r22, r12
    2a0e:	90 e0       	ldi	r25, 0x00	; 0
    2a10:	0e 94 48 15 	call	0x2a90	; 0x2a90 <fputc>
    2a14:	89 14       	cp	r8, r9
    2a16:	38 f4       	brcc	.+14     	; 0x2a26 <vfprintf+0x384>
    2a18:	b6 01       	movw	r22, r12
    2a1a:	80 e3       	ldi	r24, 0x30	; 48
    2a1c:	90 e0       	ldi	r25, 0x00	; 0
    2a1e:	0e 94 48 15 	call	0x2a90	; 0x2a90 <fputc>
    2a22:	9a 94       	dec	r9
    2a24:	f7 cf       	rjmp	.-18     	; 0x2a14 <vfprintf+0x372>
    2a26:	8a 94       	dec	r8
    2a28:	f3 01       	movw	r30, r6
    2a2a:	e8 0d       	add	r30, r8
    2a2c:	f1 1d       	adc	r31, r1
    2a2e:	80 81       	ld	r24, Z
    2a30:	b6 01       	movw	r22, r12
    2a32:	90 e0       	ldi	r25, 0x00	; 0
    2a34:	0e 94 48 15 	call	0x2a90	; 0x2a90 <fputc>
    2a38:	81 10       	cpse	r8, r1
    2a3a:	f5 cf       	rjmp	.-22     	; 0x2a26 <vfprintf+0x384>
    2a3c:	22 20       	and	r2, r2
    2a3e:	09 f4       	brne	.+2      	; 0x2a42 <vfprintf+0x3a0>
    2a40:	42 ce       	rjmp	.-892    	; 0x26c6 <vfprintf+0x24>
    2a42:	b6 01       	movw	r22, r12
    2a44:	80 e2       	ldi	r24, 0x20	; 32
    2a46:	90 e0       	ldi	r25, 0x00	; 0
    2a48:	0e 94 48 15 	call	0x2a90	; 0x2a90 <fputc>
    2a4c:	2a 94       	dec	r2
    2a4e:	f6 cf       	rjmp	.-20     	; 0x2a3c <vfprintf+0x39a>
    2a50:	f6 01       	movw	r30, r12
    2a52:	86 81       	ldd	r24, Z+6	; 0x06
    2a54:	97 81       	ldd	r25, Z+7	; 0x07
    2a56:	02 c0       	rjmp	.+4      	; 0x2a5c <vfprintf+0x3ba>
    2a58:	8f ef       	ldi	r24, 0xFF	; 255
    2a5a:	9f ef       	ldi	r25, 0xFF	; 255
    2a5c:	2b 96       	adiw	r28, 0x0b	; 11
    2a5e:	e2 e1       	ldi	r30, 0x12	; 18
    2a60:	0c 94 1d 16 	jmp	0x2c3a	; 0x2c3a <__epilogue_restores__>

00002a64 <strnlen_P>:
    2a64:	fc 01       	movw	r30, r24
    2a66:	05 90       	lpm	r0, Z+
    2a68:	61 50       	subi	r22, 0x01	; 1
    2a6a:	70 40       	sbci	r23, 0x00	; 0
    2a6c:	01 10       	cpse	r0, r1
    2a6e:	d8 f7       	brcc	.-10     	; 0x2a66 <strnlen_P+0x2>
    2a70:	80 95       	com	r24
    2a72:	90 95       	com	r25
    2a74:	8e 0f       	add	r24, r30
    2a76:	9f 1f       	adc	r25, r31
    2a78:	08 95       	ret

00002a7a <strnlen>:
    2a7a:	fc 01       	movw	r30, r24
    2a7c:	61 50       	subi	r22, 0x01	; 1
    2a7e:	70 40       	sbci	r23, 0x00	; 0
    2a80:	01 90       	ld	r0, Z+
    2a82:	01 10       	cpse	r0, r1
    2a84:	d8 f7       	brcc	.-10     	; 0x2a7c <strnlen+0x2>
    2a86:	80 95       	com	r24
    2a88:	90 95       	com	r25
    2a8a:	8e 0f       	add	r24, r30
    2a8c:	9f 1f       	adc	r25, r31
    2a8e:	08 95       	ret

00002a90 <fputc>:
    2a90:	0f 93       	push	r16
    2a92:	1f 93       	push	r17
    2a94:	cf 93       	push	r28
    2a96:	df 93       	push	r29
    2a98:	fb 01       	movw	r30, r22
    2a9a:	23 81       	ldd	r18, Z+3	; 0x03
    2a9c:	21 fd       	sbrc	r18, 1
    2a9e:	03 c0       	rjmp	.+6      	; 0x2aa6 <fputc+0x16>
    2aa0:	8f ef       	ldi	r24, 0xFF	; 255
    2aa2:	9f ef       	ldi	r25, 0xFF	; 255
    2aa4:	2c c0       	rjmp	.+88     	; 0x2afe <fputc+0x6e>
    2aa6:	22 ff       	sbrs	r18, 2
    2aa8:	16 c0       	rjmp	.+44     	; 0x2ad6 <fputc+0x46>
    2aaa:	46 81       	ldd	r20, Z+6	; 0x06
    2aac:	57 81       	ldd	r21, Z+7	; 0x07
    2aae:	24 81       	ldd	r18, Z+4	; 0x04
    2ab0:	35 81       	ldd	r19, Z+5	; 0x05
    2ab2:	42 17       	cp	r20, r18
    2ab4:	53 07       	cpc	r21, r19
    2ab6:	44 f4       	brge	.+16     	; 0x2ac8 <fputc+0x38>
    2ab8:	a0 81       	ld	r26, Z
    2aba:	b1 81       	ldd	r27, Z+1	; 0x01
    2abc:	9d 01       	movw	r18, r26
    2abe:	2f 5f       	subi	r18, 0xFF	; 255
    2ac0:	3f 4f       	sbci	r19, 0xFF	; 255
    2ac2:	31 83       	std	Z+1, r19	; 0x01
    2ac4:	20 83       	st	Z, r18
    2ac6:	8c 93       	st	X, r24
    2ac8:	26 81       	ldd	r18, Z+6	; 0x06
    2aca:	37 81       	ldd	r19, Z+7	; 0x07
    2acc:	2f 5f       	subi	r18, 0xFF	; 255
    2ace:	3f 4f       	sbci	r19, 0xFF	; 255
    2ad0:	37 83       	std	Z+7, r19	; 0x07
    2ad2:	26 83       	std	Z+6, r18	; 0x06
    2ad4:	14 c0       	rjmp	.+40     	; 0x2afe <fputc+0x6e>
    2ad6:	8b 01       	movw	r16, r22
    2ad8:	ec 01       	movw	r28, r24
    2ada:	fb 01       	movw	r30, r22
    2adc:	00 84       	ldd	r0, Z+8	; 0x08
    2ade:	f1 85       	ldd	r31, Z+9	; 0x09
    2ae0:	e0 2d       	mov	r30, r0
    2ae2:	09 95       	icall
    2ae4:	89 2b       	or	r24, r25
    2ae6:	e1 f6       	brne	.-72     	; 0x2aa0 <fputc+0x10>
    2ae8:	d8 01       	movw	r26, r16
    2aea:	16 96       	adiw	r26, 0x06	; 6
    2aec:	8d 91       	ld	r24, X+
    2aee:	9c 91       	ld	r25, X
    2af0:	17 97       	sbiw	r26, 0x07	; 7
    2af2:	01 96       	adiw	r24, 0x01	; 1
    2af4:	17 96       	adiw	r26, 0x07	; 7
    2af6:	9c 93       	st	X, r25
    2af8:	8e 93       	st	-X, r24
    2afa:	16 97       	sbiw	r26, 0x06	; 6
    2afc:	ce 01       	movw	r24, r28
    2afe:	df 91       	pop	r29
    2b00:	cf 91       	pop	r28
    2b02:	1f 91       	pop	r17
    2b04:	0f 91       	pop	r16
    2b06:	08 95       	ret

00002b08 <__ultoa_invert>:
    2b08:	fa 01       	movw	r30, r20
    2b0a:	aa 27       	eor	r26, r26
    2b0c:	28 30       	cpi	r18, 0x08	; 8
    2b0e:	51 f1       	breq	.+84     	; 0x2b64 <__ultoa_invert+0x5c>
    2b10:	20 31       	cpi	r18, 0x10	; 16
    2b12:	81 f1       	breq	.+96     	; 0x2b74 <__ultoa_invert+0x6c>
    2b14:	e8 94       	clt
    2b16:	6f 93       	push	r22
    2b18:	6e 7f       	andi	r22, 0xFE	; 254
    2b1a:	6e 5f       	subi	r22, 0xFE	; 254
    2b1c:	7f 4f       	sbci	r23, 0xFF	; 255
    2b1e:	8f 4f       	sbci	r24, 0xFF	; 255
    2b20:	9f 4f       	sbci	r25, 0xFF	; 255
    2b22:	af 4f       	sbci	r26, 0xFF	; 255
    2b24:	b1 e0       	ldi	r27, 0x01	; 1
    2b26:	3e d0       	rcall	.+124    	; 0x2ba4 <__ultoa_invert+0x9c>
    2b28:	b4 e0       	ldi	r27, 0x04	; 4
    2b2a:	3c d0       	rcall	.+120    	; 0x2ba4 <__ultoa_invert+0x9c>
    2b2c:	67 0f       	add	r22, r23
    2b2e:	78 1f       	adc	r23, r24
    2b30:	89 1f       	adc	r24, r25
    2b32:	9a 1f       	adc	r25, r26
    2b34:	a1 1d       	adc	r26, r1
    2b36:	68 0f       	add	r22, r24
    2b38:	79 1f       	adc	r23, r25
    2b3a:	8a 1f       	adc	r24, r26
    2b3c:	91 1d       	adc	r25, r1
    2b3e:	a1 1d       	adc	r26, r1
    2b40:	6a 0f       	add	r22, r26
    2b42:	71 1d       	adc	r23, r1
    2b44:	81 1d       	adc	r24, r1
    2b46:	91 1d       	adc	r25, r1
    2b48:	a1 1d       	adc	r26, r1
    2b4a:	20 d0       	rcall	.+64     	; 0x2b8c <__ultoa_invert+0x84>
    2b4c:	09 f4       	brne	.+2      	; 0x2b50 <__ultoa_invert+0x48>
    2b4e:	68 94       	set
    2b50:	3f 91       	pop	r19
    2b52:	2a e0       	ldi	r18, 0x0A	; 10
    2b54:	26 9f       	mul	r18, r22
    2b56:	11 24       	eor	r1, r1
    2b58:	30 19       	sub	r19, r0
    2b5a:	30 5d       	subi	r19, 0xD0	; 208
    2b5c:	31 93       	st	Z+, r19
    2b5e:	de f6       	brtc	.-74     	; 0x2b16 <__ultoa_invert+0xe>
    2b60:	cf 01       	movw	r24, r30
    2b62:	08 95       	ret
    2b64:	46 2f       	mov	r20, r22
    2b66:	47 70       	andi	r20, 0x07	; 7
    2b68:	40 5d       	subi	r20, 0xD0	; 208
    2b6a:	41 93       	st	Z+, r20
    2b6c:	b3 e0       	ldi	r27, 0x03	; 3
    2b6e:	0f d0       	rcall	.+30     	; 0x2b8e <__ultoa_invert+0x86>
    2b70:	c9 f7       	brne	.-14     	; 0x2b64 <__ultoa_invert+0x5c>
    2b72:	f6 cf       	rjmp	.-20     	; 0x2b60 <__ultoa_invert+0x58>
    2b74:	46 2f       	mov	r20, r22
    2b76:	4f 70       	andi	r20, 0x0F	; 15
    2b78:	40 5d       	subi	r20, 0xD0	; 208
    2b7a:	4a 33       	cpi	r20, 0x3A	; 58
    2b7c:	18 f0       	brcs	.+6      	; 0x2b84 <__ultoa_invert+0x7c>
    2b7e:	49 5d       	subi	r20, 0xD9	; 217
    2b80:	31 fd       	sbrc	r19, 1
    2b82:	40 52       	subi	r20, 0x20	; 32
    2b84:	41 93       	st	Z+, r20
    2b86:	02 d0       	rcall	.+4      	; 0x2b8c <__ultoa_invert+0x84>
    2b88:	a9 f7       	brne	.-22     	; 0x2b74 <__ultoa_invert+0x6c>
    2b8a:	ea cf       	rjmp	.-44     	; 0x2b60 <__ultoa_invert+0x58>
    2b8c:	b4 e0       	ldi	r27, 0x04	; 4
    2b8e:	a6 95       	lsr	r26
    2b90:	97 95       	ror	r25
    2b92:	87 95       	ror	r24
    2b94:	77 95       	ror	r23
    2b96:	67 95       	ror	r22
    2b98:	ba 95       	dec	r27
    2b9a:	c9 f7       	brne	.-14     	; 0x2b8e <__ultoa_invert+0x86>
    2b9c:	00 97       	sbiw	r24, 0x00	; 0
    2b9e:	61 05       	cpc	r22, r1
    2ba0:	71 05       	cpc	r23, r1
    2ba2:	08 95       	ret
    2ba4:	9b 01       	movw	r18, r22
    2ba6:	ac 01       	movw	r20, r24
    2ba8:	0a 2e       	mov	r0, r26
    2baa:	06 94       	lsr	r0
    2bac:	57 95       	ror	r21
    2bae:	47 95       	ror	r20
    2bb0:	37 95       	ror	r19
    2bb2:	27 95       	ror	r18
    2bb4:	ba 95       	dec	r27
    2bb6:	c9 f7       	brne	.-14     	; 0x2baa <__ultoa_invert+0xa2>
    2bb8:	62 0f       	add	r22, r18
    2bba:	73 1f       	adc	r23, r19
    2bbc:	84 1f       	adc	r24, r20
    2bbe:	95 1f       	adc	r25, r21
    2bc0:	a0 1d       	adc	r26, r0
    2bc2:	08 95       	ret

00002bc4 <__divmodsi4>:
    2bc4:	05 2e       	mov	r0, r21
    2bc6:	97 fb       	bst	r25, 7
    2bc8:	1e f4       	brtc	.+6      	; 0x2bd0 <__divmodsi4+0xc>
    2bca:	00 94       	com	r0
    2bcc:	0e 94 f9 15 	call	0x2bf2	; 0x2bf2 <__negsi2>
    2bd0:	57 fd       	sbrc	r21, 7
    2bd2:	07 d0       	rcall	.+14     	; 0x2be2 <__divmodsi4_neg2>
    2bd4:	0e 94 75 12 	call	0x24ea	; 0x24ea <__udivmodsi4>
    2bd8:	07 fc       	sbrc	r0, 7
    2bda:	03 d0       	rcall	.+6      	; 0x2be2 <__divmodsi4_neg2>
    2bdc:	4e f4       	brtc	.+18     	; 0x2bf0 <__divmodsi4_exit>
    2bde:	0c 94 f9 15 	jmp	0x2bf2	; 0x2bf2 <__negsi2>

00002be2 <__divmodsi4_neg2>:
    2be2:	50 95       	com	r21
    2be4:	40 95       	com	r20
    2be6:	30 95       	com	r19
    2be8:	21 95       	neg	r18
    2bea:	3f 4f       	sbci	r19, 0xFF	; 255
    2bec:	4f 4f       	sbci	r20, 0xFF	; 255
    2bee:	5f 4f       	sbci	r21, 0xFF	; 255

00002bf0 <__divmodsi4_exit>:
    2bf0:	08 95       	ret

00002bf2 <__negsi2>:
    2bf2:	90 95       	com	r25
    2bf4:	80 95       	com	r24
    2bf6:	70 95       	com	r23
    2bf8:	61 95       	neg	r22
    2bfa:	7f 4f       	sbci	r23, 0xFF	; 255
    2bfc:	8f 4f       	sbci	r24, 0xFF	; 255
    2bfe:	9f 4f       	sbci	r25, 0xFF	; 255
    2c00:	08 95       	ret

00002c02 <__prologue_saves__>:
    2c02:	2f 92       	push	r2
    2c04:	3f 92       	push	r3
    2c06:	4f 92       	push	r4
    2c08:	5f 92       	push	r5
    2c0a:	6f 92       	push	r6
    2c0c:	7f 92       	push	r7
    2c0e:	8f 92       	push	r8
    2c10:	9f 92       	push	r9
    2c12:	af 92       	push	r10
    2c14:	bf 92       	push	r11
    2c16:	cf 92       	push	r12
    2c18:	df 92       	push	r13
    2c1a:	ef 92       	push	r14
    2c1c:	ff 92       	push	r15
    2c1e:	0f 93       	push	r16
    2c20:	1f 93       	push	r17
    2c22:	cf 93       	push	r28
    2c24:	df 93       	push	r29
    2c26:	cd b7       	in	r28, 0x3d	; 61
    2c28:	de b7       	in	r29, 0x3e	; 62
    2c2a:	ca 1b       	sub	r28, r26
    2c2c:	db 0b       	sbc	r29, r27
    2c2e:	0f b6       	in	r0, 0x3f	; 63
    2c30:	f8 94       	cli
    2c32:	de bf       	out	0x3e, r29	; 62
    2c34:	0f be       	out	0x3f, r0	; 63
    2c36:	cd bf       	out	0x3d, r28	; 61
    2c38:	09 94       	ijmp

00002c3a <__epilogue_restores__>:
    2c3a:	2a 88       	ldd	r2, Y+18	; 0x12
    2c3c:	39 88       	ldd	r3, Y+17	; 0x11
    2c3e:	48 88       	ldd	r4, Y+16	; 0x10
    2c40:	5f 84       	ldd	r5, Y+15	; 0x0f
    2c42:	6e 84       	ldd	r6, Y+14	; 0x0e
    2c44:	7d 84       	ldd	r7, Y+13	; 0x0d
    2c46:	8c 84       	ldd	r8, Y+12	; 0x0c
    2c48:	9b 84       	ldd	r9, Y+11	; 0x0b
    2c4a:	aa 84       	ldd	r10, Y+10	; 0x0a
    2c4c:	b9 84       	ldd	r11, Y+9	; 0x09
    2c4e:	c8 84       	ldd	r12, Y+8	; 0x08
    2c50:	df 80       	ldd	r13, Y+7	; 0x07
    2c52:	ee 80       	ldd	r14, Y+6	; 0x06
    2c54:	fd 80       	ldd	r15, Y+5	; 0x05
    2c56:	0c 81       	ldd	r16, Y+4	; 0x04
    2c58:	1b 81       	ldd	r17, Y+3	; 0x03
    2c5a:	aa 81       	ldd	r26, Y+2	; 0x02
    2c5c:	b9 81       	ldd	r27, Y+1	; 0x01
    2c5e:	ce 0f       	add	r28, r30
    2c60:	d1 1d       	adc	r29, r1
    2c62:	0f b6       	in	r0, 0x3f	; 63
    2c64:	f8 94       	cli
    2c66:	de bf       	out	0x3e, r29	; 62
    2c68:	0f be       	out	0x3f, r0	; 63
    2c6a:	cd bf       	out	0x3d, r28	; 61
    2c6c:	ed 01       	movw	r28, r26
    2c6e:	08 95       	ret

00002c70 <_exit>:
    2c70:	f8 94       	cli

00002c72 <__stop_program>:
    2c72:	ff cf       	rjmp	.-2      	; 0x2c72 <__stop_program>
